---
triple:          'arm64-apple-darwin'
binary-path:     lab4.exe
relocations:
  - { offset: 0x13DFA, size: 0x8, addend: 0x0, symName: __ZL15test_data_count, symObjAddr: 0xA70, symBinAddr: 0x10000C960, symSize: 0x0 }
  - { offset: 0x15583, size: 0x8, addend: 0x0, symName: __ZStL8__ioinit, symObjAddr: 0x6E5F1, symBinAddr: 0x10001CC08, symSize: 0x0 }
  - { offset: 0x15A9E, size: 0x8, addend: 0x0, symName: __ZSt10destroy_atI11measurementEvPT_, symObjAddr: 0xA5C, symBinAddr: 0x10000339C, symSize: 0x14 }
  - { offset: 0x15AD4, size: 0x8, addend: 0x0, symName: __ZNSt15__new_allocatorI11measurementE10deallocateEPS0_m, symObjAddr: 0xA2C, symBinAddr: 0x10000336C, symSize: 0x30 }
  - { offset: 0x15B1A, size: 0x8, addend: 0x0, symName: __ZSt8_DestroyI11measurementEvPT_, symObjAddr: 0xA0C, symBinAddr: 0x10000334C, symSize: 0x20 }
  - { offset: 0x15B4C, size: 0x8, addend: 0x0, symName: __ZSt11__addressofI11measurementEPT_RS1_, symObjAddr: 0x9F8, symBinAddr: 0x100003338, symSize: 0x14 }
  - { offset: 0x15BAE, size: 0x8, addend: 0x0, symName: __ZNSt12_Destroy_auxILb1EE9__destroyIP11measurementEEvT_S4_, symObjAddr: 0x9E0, symBinAddr: 0x100003320, symSize: 0x18 }
  - { offset: 0x15BE2, size: 0x8, addend: 0x0, symName: __ZNSt12_Destroy_auxILb0EE9__destroyIP11measurementEEvT_S4_, symObjAddr: 0x994, symBinAddr: 0x1000032D4, symSize: 0x4C }
  - { offset: 0x15C56, size: 0x8, addend: 0x0, symName: __ZSt8_DestroyIP11measurementEvT_S2_, symObjAddr: 0x950, symBinAddr: 0x100003290, symSize: 0x44 }
  - { offset: 0x15CB5, size: 0x8, addend: 0x0, symName: __ZNSt12_Vector_baseI11measurementSaIS0_EE13_M_deallocateEPS0_m, symObjAddr: 0x8C4, symBinAddr: 0x100003204, symSize: 0x8C }
  - { offset: 0x15DE2, size: 0x8, addend: 0x0, symName: __ZNSt12_Vector_baseI11measurementSaIS0_EE19_M_get_Tp_allocatorEv, symObjAddr: 0x8B0, symBinAddr: 0x1000031F0, symSize: 0x14 }
  - { offset: 0x15E30, size: 0x8, addend: 0x0, symName: __ZNSt12_Vector_baseI11measurementSaIS0_EED2Ev, symObjAddr: 0x860, symBinAddr: 0x1000031A0, symSize: 0x50 }
  - { offset: 0x15E7D, size: 0x8, addend: 0x0, symName: __ZNSt12_Vector_baseI11measurementSaIS0_EE12_Vector_implD1Ev, symObjAddr: 0x840, symBinAddr: 0x100003180, symSize: 0x20 }
  - { offset: 0x15ECC, size: 0x8, addend: 0x0, symName: __ZNKSt6chrono8durationIxSt5ratioILl1ELl1000EEE5countEv, symObjAddr: 0x828, symBinAddr: 0x100003168, symSize: 0x18 }
  - { offset: 0x15EF6, size: 0x8, addend: 0x0, symName: __ZNKSt6vectorI11measurementSaIS0_EE4sizeEv, symObjAddr: 0x800, symBinAddr: 0x100003140, symSize: 0x28 }
  - { offset: 0x15F22, size: 0x8, addend: 0x0, symName: __ZSt7setfillIcESt8_SetfillIT_ES1_, symObjAddr: 0x7EC, symBinAddr: 0x10000312C, symSize: 0x14 }
  - { offset: 0x15F7C, size: 0x8, addend: 0x0, symName: __ZNSt6vectorI11measurementSaIS0_EED1Ev, symObjAddr: 0x790, symBinAddr: 0x1000030D0, symSize: 0x5C }
  - { offset: 0x15FDB, size: 0x8, addend: 0x0, symName: _main, symObjAddr: 0x1B4, symBinAddr: 0x100002AF4, symSize: 0x5DC }
  - { offset: 0x16081, size: 0x8, addend: 0x0, symName: __ZNSt6vectorI11measurementSaIS0_EEixEm, symObjAddr: 0x18C, symBinAddr: 0x100002ACC, symSize: 0x28 }
  - { offset: 0x160B8, size: 0x8, addend: 0x0, symName: __ZSt4setwi, symObjAddr: 0x178, symBinAddr: 0x100002AB8, symSize: 0x14 }
  - { offset: 0x160E1, size: 0x8, addend: 0x0, symName: __ZSt3hexRSt8ios_base, symObjAddr: 0x150, symBinAddr: 0x100002A90, symSize: 0x28 }
  - { offset: 0x1610B, size: 0x8, addend: 0x0, symName: __ZSt3decRSt8ios_base, symObjAddr: 0x128, symBinAddr: 0x100002A68, symSize: 0x28 }
  - { offset: 0x16144, size: 0x8, addend: 0x0, symName: __ZNSt8ios_base4setfESt13_Ios_FmtflagsS0_, symObjAddr: 0xC8, symBinAddr: 0x100002A08, symSize: 0x60 }
  - { offset: 0x161AB, size: 0x8, addend: 0x0, symName: __ZStaNRSt13_Ios_FmtflagsS_, symObjAddr: 0x90, symBinAddr: 0x1000029D0, symSize: 0x38 }
  - { offset: 0x161E4, size: 0x8, addend: 0x0, symName: __ZStoRRSt13_Ios_FmtflagsS_, symObjAddr: 0x58, symBinAddr: 0x100002998, symSize: 0x38 }
  - { offset: 0x1621D, size: 0x8, addend: 0x0, symName: __ZStcoSt13_Ios_Fmtflags, symObjAddr: 0x40, symBinAddr: 0x100002980, symSize: 0x18 }
  - { offset: 0x16246, size: 0x8, addend: 0x0, symName: __ZStorSt13_Ios_FmtflagsS_, symObjAddr: 0x20, symBinAddr: 0x100002960, symSize: 0x20 }
  - { offset: 0x1627F, size: 0x8, addend: 0x0, symName: __ZStanSt13_Ios_FmtflagsS_, symObjAddr: 0x0, symBinAddr: 0x100002940, symSize: 0x20 }
  - { offset: 0x162D4, size: 0x8, addend: 0x0, symName: __ZSt21is_constant_evaluatedv, symObjAddr: 0x0, symBinAddr: 0x100003400, symSize: 0x8 }
  - { offset: 0x2BE36, size: 0x8, addend: 0x0, symName: __ZNSt10_Head_baseILm1EmLb0EE7_M_headERS0_, symObjAddr: 0x3F38, symBinAddr: 0x100007338, symSize: 0x14 }
  - { offset: 0x2BE5F, size: 0x8, addend: 0x0, symName: __ZNSt10_Head_baseILm0EZ10vector_modPKmmmEUljE_Lb0EE7_M_headERS3_, symObjAddr: 0x3F24, symBinAddr: 0x100007324, symSize: 0x14 }
  - { offset: 0x2BE88, size: 0x8, addend: 0x0, symName: __ZNSt11_Tuple_implILm1EJmEE7_M_headERS0_, symObjAddr: 0x3F08, symBinAddr: 0x100007308, symSize: 0x1C }
  - { offset: 0x2BEB2, size: 0x8, addend: 0x0, symName: __ZNSt11_Tuple_implILm0EJZ10vector_modPKmmmEUljE_mEE7_M_headERS3_, symObjAddr: 0x3EE8, symBinAddr: 0x1000072E8, symSize: 0x20 }
  - { offset: 0x2BEE3, size: 0x8, addend: 0x0, symName: __ZSt13__invoke_implIvZ10vector_modPKmmmEUljE_JmEET_St14__invoke_otherOT0_DpOT1_, symObjAddr: 0x3E9C, symBinAddr: 0x10000729C, symSize: 0x4C }
  - { offset: 0x2BF47, size: 0x8, addend: 0x0, symName: __ZSt7forwardImEOT_RNSt16remove_referenceIS0_E4typeE, symObjAddr: 0x3E88, symBinAddr: 0x100007288, symSize: 0x14 }
  - { offset: 0x2BF79, size: 0x8, addend: 0x0, symName: __ZSt12__get_helperILm1EmJEERT0_RSt11_Tuple_implIXT_EJS0_DpT1_EE, symObjAddr: 0x3E6C, symBinAddr: 0x10000726C, symSize: 0x1C }
  - { offset: 0x2BFC3, size: 0x8, addend: 0x0, symName: __ZSt7forwardIZ10vector_modPKmmmEUljE_EOT_RNSt16remove_referenceIS3_E4typeE, symObjAddr: 0x3E58, symBinAddr: 0x100007258, symSize: 0x14 }
  - { offset: 0x2BFF5, size: 0x8, addend: 0x0, symName: __ZSt12__get_helperILm0EZ10vector_modPKmmmEUljE_JmEERT0_RSt11_Tuple_implIXT_EJS3_DpT1_EE, symObjAddr: 0x3E3C, symBinAddr: 0x10000723C, symSize: 0x1C }
  - { offset: 0x2C03F, size: 0x8, addend: 0x0, symName: __ZSt8__invokeIZ10vector_modPKmmmEUljE_JmEENSt15__invoke_resultIT_JDpT0_EE4typeEOS4_DpOS5_, symObjAddr: 0x3DF4, symBinAddr: 0x1000071F4, symSize: 0x48 }
  - { offset: 0x2C094, size: 0x8, addend: 0x0, symName: __ZSt3getILm1EJZ10vector_modPKmmmEUljE_mEEONSt13tuple_elementIXT_ESt5tupleIJDpT0_EEE4typeEOS7_, symObjAddr: 0x3DD4, symBinAddr: 0x1000071D4, symSize: 0x20 }
  - { offset: 0x2C0E2, size: 0x8, addend: 0x0, symName: __ZSt3getILm0EJZ10vector_modPKmmmEUljE_mEEONSt13tuple_elementIXT_ESt5tupleIJDpT0_EEE4typeEOS7_, symObjAddr: 0x3DB4, symBinAddr: 0x1000071B4, symSize: 0x20 }
  - { offset: 0x2C130, size: 0x8, addend: 0x0, symName: __ZSt4moveIRSt5tupleIJZ10vector_modPKmmmEUljE_mEEEONSt16remove_referenceIT_E4typeEOS7_, symObjAddr: 0x3DA0, symBinAddr: 0x1000071A0, symSize: 0x14 }
  - { offset: 0x2C166, size: 0x8, addend: 0x0, symName: __ZNSt6thread8_InvokerISt5tupleIJZ10vector_modPKmmmEUljE_mEEE9_M_invokeIJLm0ELm1EEEEvSt12_Index_tupleIJXspT_EEE, symObjAddr: 0x3D54, symBinAddr: 0x100007154, symSize: 0x4C }
  - { offset: 0x2C1B2, size: 0x8, addend: 0x0, symName: __ZNSt6thread8_InvokerISt5tupleIJZ10vector_modPKmmmEUljE_mEEEclEv, symObjAddr: 0x3D34, symBinAddr: 0x100007134, symSize: 0x20 }
  - { offset: 0x2C1DC, size: 0x8, addend: 0x0, symName: __ZNSt6thread11_State_implINS_8_InvokerISt5tupleIJZ10vector_modPKmmmEUljE_mEEEEE6_M_runEv, symObjAddr: 0x3D10, symBinAddr: 0x100007110, symSize: 0x24 }
  - { offset: 0x2C229, size: 0x8, addend: 0x0, symName: __ZNSt6thread11_State_implINS_8_InvokerISt5tupleIJZ10vector_modPKmmmEUljE_mEEEEED0Ev, symObjAddr: 0x3CE8, symBinAddr: 0x1000070E8, symSize: 0x28 }
  - { offset: 0x2C24F, size: 0x8, addend: 0x0, symName: __ZNSt6thread11_State_implINS_8_InvokerISt5tupleIJZ10vector_modPKmmmEUljE_mEEEEED1Ev, symObjAddr: 0x3CB8, symBinAddr: 0x1000070B8, symSize: 0x30 }
  - { offset: 0x2C271, size: 0x8, addend: 0x0, symName: __ZNSt10_Head_baseILm0EPNSt14__tree_barrierISt18__empty_completionE9__state_tELb0EE7_M_headERKS5_, symObjAddr: 0x3CA4, symBinAddr: 0x1000070A4, symSize: 0x14 }
  - { offset: 0x2C29A, size: 0x8, addend: 0x0, symName: __ZNSt11_Tuple_implILm0EJPNSt14__tree_barrierISt18__empty_completionE9__state_tESt14default_deleteIA_S3_EEE7_M_headERKS8_, symObjAddr: 0x3C88, symBinAddr: 0x100007088, symSize: 0x1C }
  - { offset: 0x2C2C4, size: 0x8, addend: 0x0, symName: __ZSt12__get_helperILm0EPNSt14__tree_barrierISt18__empty_completionE9__state_tEJSt14default_deleteIA_S3_EEERKT0_RKSt11_Tuple_implIXT_EJS8_DpT1_EE, symObjAddr: 0x3C6C, symBinAddr: 0x10000706C, symSize: 0x1C }
  - { offset: 0x2C30E, size: 0x8, addend: 0x0, symName: __ZSt9__fill_a1IP16partial_result_tS0_EN9__gnu_cxx11__enable_ifIXntsrSt11__is_scalarIT0_E7__valueEvE6__typeET_S9_RKS5_, symObjAddr: 0x3BA4, symBinAddr: 0x100006FA4, symSize: 0xC8 }
  - { offset: 0x2C36C, size: 0x8, addend: 0x0, symName: __ZNSt10_Head_baseILm1ESt14default_deleteINSt6thread6_StateEELb1EE7_M_headERS4_, symObjAddr: 0x3B90, symBinAddr: 0x100006F90, symSize: 0x14 }
  - { offset: 0x2C420, size: 0x8, addend: 0x0, symName: __ZSt3getILm0EJPNSt14__tree_barrierISt18__empty_completionE9__state_tESt14default_deleteIA_S3_EEERKNSt13tuple_elementIXT_ESt5tupleIJDpT0_EEE4typeERKSC_, symObjAddr: 0x3B74, symBinAddr: 0x100006F74, symSize: 0x1C }
  - { offset: 0x2C467, size: 0x8, addend: 0x0, symName: __ZNSt8__detail13__atomic_spinIZNKSt14__tree_barrierISt18__empty_completionE4waitEOSt17__barrier_phase_tEUlvE_NS_21__default_spin_policyEEEbRT_T0_, symObjAddr: 0x3AD0, symBinAddr: 0x100006ED0, symSize: 0xA4 }
  - { offset: 0x2C4D5, size: 0x8, addend: 0x0, symName: __ZSt8__fill_aIP16partial_result_tS0_EvT_S2_RKT0_, symObjAddr: 0x3AA0, symBinAddr: 0x100006EA0, symSize: 0x30 }
  - { offset: 0x2C533, size: 0x8, addend: 0x0, symName: __ZNSt11_Tuple_implILm1EJSt14default_deleteINSt6thread6_StateEEEE7_M_headERS4_, symObjAddr: 0x3A84, symBinAddr: 0x100006E84, symSize: 0x1C }
  - { offset: 0x2C55D, size: 0x8, addend: 0x0, symName: __ZNSt10_Head_baseILm0EPNSt6thread6_StateELb0EE7_M_headERS3_, symObjAddr: 0x3A70, symBinAddr: 0x100006E70, symSize: 0x14 }
  - { offset: 0x2C5A4, size: 0x8, addend: 0x0, symName: __ZNSt10_Head_baseILm1ESt14default_deleteINSt6thread6_StateEELb1EEC2Ev, symObjAddr: 0x3A5C, symBinAddr: 0x100006E5C, symSize: 0x14 }
  - { offset: 0x2C5FA, size: 0x8, addend: 0x0, symName: __ZNSt10_Head_baseILm1EmLb0EEC2IRmEEOT_, symObjAddr: 0x3A2C, symBinAddr: 0x100006E2C, symSize: 0x30 }
  - { offset: 0x2C663, size: 0x8, addend: 0x0, symName: __ZNSt8__detail8__waiterISt17integral_constantIbLb0EEEC1ISt17__barrier_phase_tEEPKT_, symObjAddr: 0x3A04, symBinAddr: 0x100006E04, symSize: 0x28 }
  - { offset: 0x2C70A, size: 0x8, addend: 0x0, symName: __ZNKSt15__uniq_ptr_implINSt14__tree_barrierISt18__empty_completionE9__state_tESt14default_deleteIA_S3_EE6_M_ptrEv, symObjAddr: 0x39E4, symBinAddr: 0x100006DE4, symSize: 0x20 }
  - { offset: 0x2C737, size: 0x8, addend: 0x0, symName: __ZNSt8__detail13__waiter_baseINS_13__waiter_poolEE10_S_do_spinIZNKSt14__tree_barrierISt18__empty_completionE4waitEOSt17__barrier_phase_tEUlvE_NS_21__default_spin_policyEEEbPKmT_RmT0_, symObjAddr: 0x39A8, symBinAddr: 0x100006DA8, symSize: 0x3C }
  - { offset: 0x2C7A6, size: 0x8, addend: 0x0, symName: __ZNSt8__detail13__waiter_baseINS_13__waiter_poolEE12_S_wait_addrISt17__barrier_phase_tEEPmPKT_S5_, symObjAddr: 0x3990, symBinAddr: 0x100006D90, symSize: 0x18 }
  - { offset: 0x2C7EA, size: 0x8, addend: 0x0, symName: __ZNSt10_Head_baseILm1ESt14default_deleteIA_NSt14__tree_barrierISt18__empty_completionE9__state_tEELb1EE7_M_headERS7_, symObjAddr: 0x397C, symBinAddr: 0x100006D7C, symSize: 0x14 }
  - { offset: 0x2C813, size: 0x8, addend: 0x0, symName: __ZSt10__fill_n_aIP16partial_result_tmS0_ET_S2_T0_RKT1_St26random_access_iterator_tag, symObjAddr: 0x3918, symBinAddr: 0x100006D18, symSize: 0x64 }
  - { offset: 0x2C8A0, size: 0x8, addend: 0x0, symName: __ZSt12construct_atI16partial_result_tJEEDTgsnwcvPvLi0E_T_pispcl7declvalIT0_EEEEPS2_DpOS3_, symObjAddr: 0x38F0, symBinAddr: 0x100006CF0, symSize: 0x28 }
  - { offset: 0x2C8E1, size: 0x8, addend: 0x0, symName: __ZNSt15__new_allocatorI16partial_result_tE8allocateEmPKv, symObjAddr: 0x3868, symBinAddr: 0x100006C68, symSize: 0x88 }
  - { offset: 0x2C97C, size: 0x8, addend: 0x0, symName: __ZSt12construct_atISt6threadJEEDTgsnwcvPvLi0E_T_pispcl7declvalIT0_EEEEPS2_DpOS3_, symObjAddr: 0x3828, symBinAddr: 0x100006C28, symSize: 0x40 }
  - { offset: 0x2C9BD, size: 0x8, addend: 0x0, symName: __ZNSt15__new_allocatorISt6threadE8allocateEmPKv, symObjAddr: 0x37AC, symBinAddr: 0x100006BAC, symSize: 0x7C }
  - { offset: 0x2CA45, size: 0x8, addend: 0x0, symName: __ZSt12__get_helperILm1ESt14default_deleteINSt6thread6_StateEEJEERT0_RSt11_Tuple_implIXT_EJS4_DpT1_EE, symObjAddr: 0x3790, symBinAddr: 0x100006B90, symSize: 0x1C }
  - { offset: 0x2CA88, size: 0x8, addend: 0x0, symName: __ZNSt11_Tuple_implILm0EJPNSt6thread6_StateESt14default_deleteIS1_EEE7_M_headERS5_, symObjAddr: 0x3774, symBinAddr: 0x100006B74, symSize: 0x1C }
  - { offset: 0x2CAD0, size: 0x8, addend: 0x0, symName: __ZNSt10_Head_baseILm0EPNSt6thread6_StateELb0EEC2Ev, symObjAddr: 0x3758, symBinAddr: 0x100006B58, symSize: 0x1C }
  - { offset: 0x2CB10, size: 0x8, addend: 0x0, symName: __ZNSt11_Tuple_implILm1EJSt14default_deleteINSt6thread6_StateEEEEC2Ev, symObjAddr: 0x3738, symBinAddr: 0x100006B38, symSize: 0x20 }
  - { offset: 0x2CB62, size: 0x8, addend: 0x0, symName: __ZNSt10_Head_baseILm0EZ10vector_modPKmmmEUljE_Lb0EEC2IRS2_EEOT_, symObjAddr: 0x36F4, symBinAddr: 0x100006AF4, symSize: 0x44 }
  - { offset: 0x2CBCB, size: 0x8, addend: 0x0, symName: __ZNSt11_Tuple_implILm1EJmEEC2IRmEEOT_, symObjAddr: 0x36B8, symBinAddr: 0x100006AB8, symSize: 0x3C }
  - { offset: 0x2CBFF, size: 0x8, addend: 0x0, symName: __ZSt23__atomic_notify_addressISt17__barrier_phase_tEvPKT_b, symObjAddr: 0x3678, symBinAddr: 0x100006A78, symSize: 0x40 }
  - { offset: 0x2CC85, size: 0x8, addend: 0x0, symName: __ZNKSt12__atomic_refISt17__barrier_phase_tLb0ELb0EE23compare_exchange_strongERS0_S0_St12memory_orderS3_, symObjAddr: 0x3568, symBinAddr: 0x100006968, symSize: 0x110 }
  - { offset: 0x2CDBC, size: 0x8, addend: 0x0, symName: __ZNKSt10unique_ptrIA_NSt14__tree_barrierISt18__empty_completionE9__state_tESt14default_deleteIS4_EE3getEv, symObjAddr: 0x354C, symBinAddr: 0x10000694C, symSize: 0x1C }
  - { offset: 0x2CDE6, size: 0x8, addend: 0x0, symName: __ZNSt8__detail13__waiter_baseINS_13__waiter_poolEE10_M_do_spinIZNKSt14__tree_barrierISt18__empty_completionE4waitEOSt17__barrier_phase_tEUlvE_NS_21__default_spin_policyEEEbT_RmT0_, symObjAddr: 0x3514, symBinAddr: 0x100006914, symSize: 0x38 }
  - { offset: 0x2CE86, size: 0x8, addend: 0x0, symName: __ZNSt8__detail13__waiter_baseINS_13__waiter_poolEEC2ISt17__barrier_phase_tEEPKT_, symObjAddr: 0x34C0, symBinAddr: 0x1000068C0, symSize: 0x54 }
  - { offset: 0x2CEBA, size: 0x8, addend: 0x0, symName: __ZNSt11_Tuple_implILm1EJSt14default_deleteIA_NSt14__tree_barrierISt18__empty_completionE9__state_tEEEE7_M_headERS7_, symObjAddr: 0x34A4, symBinAddr: 0x1000068A4, symSize: 0x1C }
  - { offset: 0x2CEE4, size: 0x8, addend: 0x0, symName: __ZNSt10_Head_baseILm0EPNSt14__tree_barrierISt18__empty_completionE9__state_tELb0EE7_M_headERS5_, symObjAddr: 0x3490, symBinAddr: 0x100006890, symSize: 0x14 }
  - { offset: 0x2CF0D, size: 0x8, addend: 0x0, symName: __ZSt10destroy_atI16partial_result_tEvPT_, symObjAddr: 0x347C, symBinAddr: 0x10000687C, symSize: 0x14 }
  - { offset: 0x2CF3F, size: 0x8, addend: 0x0, symName: __ZSt6fill_nIP16partial_result_tmS0_ET_S2_T0_RKT1_, symObjAddr: 0x3434, symBinAddr: 0x100006834, symSize: 0x48 }
  - { offset: 0x2CFC7, size: 0x8, addend: 0x0, symName: __ZSt10_ConstructI16partial_result_tJEEvPT_DpOT0_, symObjAddr: 0x33F0, symBinAddr: 0x1000067F0, symSize: 0x44 }
  - { offset: 0x2D021, size: 0x8, addend: 0x0, symName: __ZNSt15__new_allocatorI16partial_result_tE10deallocateEPS0_m, symObjAddr: 0x33B8, symBinAddr: 0x1000067B8, symSize: 0x38 }
  - { offset: 0x2D08A, size: 0x8, addend: 0x0, symName: __ZSt10destroy_atISt6threadEvPT_, symObjAddr: 0x3398, symBinAddr: 0x100006798, symSize: 0x20 }
  - { offset: 0x2D0BC, size: 0x8, addend: 0x0, symName: __ZSt10_ConstructISt6threadJEEvPT_DpOT0_, symObjAddr: 0x3350, symBinAddr: 0x100006750, symSize: 0x48 }
  - { offset: 0x2D116, size: 0x8, addend: 0x0, symName: __ZNSt15__new_allocatorISt6threadE10deallocateEPS0_m, symObjAddr: 0x3320, symBinAddr: 0x100006720, symSize: 0x30 }
  - { offset: 0x2D186, size: 0x8, addend: 0x0, symName: __ZSt3getILm1EJPNSt6thread6_StateESt14default_deleteIS1_EEERNSt13tuple_elementIXT_ESt5tupleIJDpT0_EEE4typeERS9_, symObjAddr: 0x3304, symBinAddr: 0x100006704, symSize: 0x1C }
  - { offset: 0x2D1CD, size: 0x8, addend: 0x0, symName: __ZSt12__get_helperILm0EPNSt6thread6_StateEJSt14default_deleteIS1_EEERT0_RSt11_Tuple_implIXT_EJS5_DpT1_EE, symObjAddr: 0x32E8, symBinAddr: 0x1000066E8, symSize: 0x1C }
  - { offset: 0x2D235, size: 0x8, addend: 0x0, symName: __ZNSt11_Tuple_implILm0EJPNSt6thread6_StateESt14default_deleteIS1_EEEC2Ev, symObjAddr: 0x32C0, symBinAddr: 0x1000066C0, symSize: 0x28 }
  - { offset: 0x2D2A1, size: 0x8, addend: 0x0, symName: __ZNSt11_Tuple_implILm0EJZ10vector_modPKmmmEUljE_mEEC2IRS2_JRmEvEEOT_DpOT0_, symObjAddr: 0x3264, symBinAddr: 0x100006664, symSize: 0x5C }
  - { offset: 0x2D350, size: 0x8, addend: 0x0, symName: __ZNKSt12__atomic_refISt17__barrier_phase_tLb0ELb0EE23compare_exchange_strongERS0_S0_St12memory_order, symObjAddr: 0x3218, symBinAddr: 0x100006618, symSize: 0x4C }
  - { offset: 0x2D3AD, size: 0x8, addend: 0x0, symName: __ZNSt5arrayISt17__barrier_phase_tLm64EEixEm, symObjAddr: 0x31F8, symBinAddr: 0x1000065F8, symSize: 0x20 }
  - { offset: 0x2D3E7, size: 0x8, addend: 0x0, symName: __ZNKSt10unique_ptrIA_NSt14__tree_barrierISt18__empty_completionE9__state_tESt14default_deleteIS4_EEixEm, symObjAddr: 0x318C, symBinAddr: 0x10000658C, symSize: 0x6C }
  - { offset: 0x2D438, size: 0x8, addend: 0x0, symName: __ZSt11__addressofISt17__barrier_phase_tEPT_RS1_, symObjAddr: 0x3178, symBinAddr: 0x100006578, symSize: 0x14 }
  - { offset: 0x2D46E, size: 0x8, addend: 0x0, symName: __ZNSt8__detail8__waiterISt17integral_constantIbLb1EEE10_M_do_waitIZNKSt14__tree_barrierISt18__empty_completionE4waitEOSt17__barrier_phase_tEUlvE_EEvT_, symObjAddr: 0x30EC, symBinAddr: 0x1000064EC, symSize: 0x8C }
  - { offset: 0x2D4FB, size: 0x8, addend: 0x0, symName: __ZNSt8__detail8__waiterISt17integral_constantIbLb1EEEC1ISt17__barrier_phase_tEEPKT_, symObjAddr: 0x30B8, symBinAddr: 0x1000064B8, symSize: 0x34 }
  - { offset: 0x2D578, size: 0x8, addend: 0x0, symName: __ZSt11__addressofIKSt17__barrier_phase_tEPT_RS2_, symObjAddr: 0x30A4, symBinAddr: 0x1000064A4, symSize: 0x14 }
  - { offset: 0x2D5AA, size: 0x8, addend: 0x0, symName: __ZSt12__get_helperILm1ESt14default_deleteIA_NSt14__tree_barrierISt18__empty_completionE9__state_tEEJEERT0_RSt11_Tuple_implIXT_EJS7_DpT1_EE, symObjAddr: 0x3088, symBinAddr: 0x100006488, symSize: 0x1C }
  - { offset: 0x2D5ED, size: 0x8, addend: 0x0, symName: __ZNSt11_Tuple_implILm0EJPNSt14__tree_barrierISt18__empty_completionE9__state_tESt14default_deleteIA_S3_EEE7_M_headERS8_, symObjAddr: 0x306C, symBinAddr: 0x10000646C, symSize: 0x1C }
  - { offset: 0x2D642, size: 0x8, addend: 0x0, symName: __ZNSt15__uniq_ptr_implINSt14__tree_barrierISt18__empty_completionE9__state_tESt14default_deleteIA_S3_EEC2EPS3_, symObjAddr: 0x3030, symBinAddr: 0x100006430, symSize: 0x3C }
  - { offset: 0x2D66D, size: 0x8, addend: 0x0, symName: __ZSt8_DestroyI16partial_result_tEvPT_, symObjAddr: 0x3010, symBinAddr: 0x100006410, symSize: 0x20 }
  - { offset: 0x2D69F, size: 0x8, addend: 0x0, symName: __ZSt11__addressofI16partial_result_tEPT_RS1_, symObjAddr: 0x2FFC, symBinAddr: 0x1000063FC, symSize: 0x14 }
  - { offset: 0x2D6D1, size: 0x8, addend: 0x0, symName: __ZNSt27__uninitialized_default_n_1ILb1EE18__uninit_default_nIP16partial_result_tmEET_S4_T0_, symObjAddr: 0x2F98, symBinAddr: 0x100006398, symSize: 0x64 }
  - { offset: 0x2D748, size: 0x8, addend: 0x0, symName: __ZNSt27__uninitialized_default_n_1ILb0EE18__uninit_default_nIP16partial_result_tmEET_S4_T0_, symObjAddr: 0x2F40, symBinAddr: 0x100006340, symSize: 0x58 }
  - { offset: 0x2D7FA, size: 0x8, addend: 0x0, symName: __ZSt8_DestroyISt6threadEvPT_, symObjAddr: 0x2F20, symBinAddr: 0x100006320, symSize: 0x20 }
  - { offset: 0x2D82C, size: 0x8, addend: 0x0, symName: __ZSt11__addressofISt6threadEPT_RS1_, symObjAddr: 0x2F0C, symBinAddr: 0x10000630C, symSize: 0x14 }
  - { offset: 0x2D85E, size: 0x8, addend: 0x0, symName: __ZNSt27__uninitialized_default_n_1ILb0EE18__uninit_default_nIPSt6threadmEET_S4_T0_, symObjAddr: 0x2EB4, symBinAddr: 0x1000062B4, symSize: 0x58 }
  - { offset: 0x2D914, size: 0x8, addend: 0x0, symName: __ZNSt15__uniq_ptr_implINSt6thread6_StateESt14default_deleteIS1_EE10_M_deleterEv, symObjAddr: 0x2E98, symBinAddr: 0x100006298, symSize: 0x1C }
  - { offset: 0x2D941, size: 0x8, addend: 0x0, symName: __ZSt3getILm0EJPNSt6thread6_StateESt14default_deleteIS1_EEERNSt13tuple_elementIXT_ESt5tupleIJDpT0_EEE4typeERS9_, symObjAddr: 0x2E7C, symBinAddr: 0x10000627C, symSize: 0x1C }
  - { offset: 0x2D9A6, size: 0x8, addend: 0x0, symName: __ZNSt5tupleIJPNSt6thread6_StateESt14default_deleteIS1_EEEC1EvQfraa26is_default_constructible_vIT_E, symObjAddr: 0x2E5C, symBinAddr: 0x10000625C, symSize: 0x20 }
  - { offset: 0x2DA06, size: 0x8, addend: 0x0, symName: __ZNSt5tupleIJZ10vector_modPKmmmEUljE_mEEC1IJRS2_RmEEEDpOT_, symObjAddr: 0x2E0C, symBinAddr: 0x10000620C, symSize: 0x50 }
  - { offset: 0x2DA6E, size: 0x8, addend: 0x0, symName: __ZNKSt12__atomic_refISt17__barrier_phase_tLb0ELb0EE5storeES0_St12memory_order, symObjAddr: 0x2DAC, symBinAddr: 0x1000061AC, symSize: 0x60 }
  - { offset: 0x2DB8C, size: 0x8, addend: 0x0, symName: __ZNSt14__tree_barrierISt18__empty_completionE9_M_arriveESt17__barrier_phase_tm, symObjAddr: 0x2BE0, symBinAddr: 0x100005FE0, symSize: 0x1CC }
  - { offset: 0x2DC94, size: 0x8, addend: 0x0, symName: __ZNKSt12__atomic_refISt17__barrier_phase_tLb0ELb0EE4loadESt12memory_order, symObjAddr: 0x2B94, symBinAddr: 0x100005F94, symSize: 0x4C }
  - { offset: 0x2DD36, size: 0x8, addend: 0x0, symName: __ZNSt12__atomic_refISt17__barrier_phase_tLb0ELb0EEC1ERS0_, symObjAddr: 0x2B64, symBinAddr: 0x100005F64, symSize: 0x30 }
  - { offset: 0x2DD61, size: 0x8, addend: 0x0, symName: __ZSt21__atomic_wait_addressISt17__barrier_phase_tZNKSt14__tree_barrierISt18__empty_completionE4waitEOS0_EUlvE_EvPKT_T0_, symObjAddr: 0x2B2C, symBinAddr: 0x100005F2C, symSize: 0x38 }
  - { offset: 0x2DDC3, size: 0x8, addend: 0x0, symName: __ZNKSt12__atomic_refIKSt17__barrier_phase_tLb0ELb0EE4loadESt12memory_order, symObjAddr: 0x2AE0, symBinAddr: 0x100005EE0, symSize: 0x4C }
  - { offset: 0x2DE65, size: 0x8, addend: 0x0, symName: __ZNSt12__atomic_refIKSt17__barrier_phase_tLb0ELb0EEC1ERS1_, symObjAddr: 0x2AB0, symBinAddr: 0x100005EB0, symSize: 0x30 }
  - { offset: 0x2DE97, size: 0x8, addend: 0x0, symName: __ZSt3getILm1EJPNSt14__tree_barrierISt18__empty_completionE9__state_tESt14default_deleteIA_S3_EEERNSt13tuple_elementIXT_ESt5tupleIJDpT0_EEE4typeERSC_, symObjAddr: 0x2A94, symBinAddr: 0x100005E94, symSize: 0x1C }
  - { offset: 0x2DEDE, size: 0x8, addend: 0x0, symName: __ZSt12__get_helperILm0EPNSt14__tree_barrierISt18__empty_completionE9__state_tEJSt14default_deleteIA_S3_EEERT0_RSt11_Tuple_implIXT_EJS8_DpT1_EE, symObjAddr: 0x2A78, symBinAddr: 0x100005E78, symSize: 0x1C }
  - { offset: 0x2DF2F, size: 0x8, addend: 0x0, symName: __ZSt7forwardISt14default_deleteIA_NSt14__tree_barrierISt18__empty_completionE9__state_tEEEOT_RNSt16remove_referenceIS7_E4typeE, symObjAddr: 0x2A64, symBinAddr: 0x100005E64, symSize: 0x14 }
  - { offset: 0x2DF65, size: 0x8, addend: 0x0, symName: __ZNSt15__uniq_ptr_implINSt14__tree_barrierISt18__empty_completionE9__state_tESt14default_deleteIA_S3_EE7releaseEv, symObjAddr: 0x2A30, symBinAddr: 0x100005E30, symSize: 0x34 }
  - { offset: 0x2DF9F, size: 0x8, addend: 0x0, symName: __ZNSt15__uniq_ptr_implINSt14__tree_barrierISt18__empty_completionE9__state_tESt14default_deleteIA_S3_EE5resetEPS3_, symObjAddr: 0x29D0, symBinAddr: 0x100005DD0, symSize: 0x60 }
  - { offset: 0x2E023, size: 0x8, addend: 0x0, symName: __ZNSt10unique_ptrIA_NSt14__tree_barrierISt18__empty_completionE9__state_tESt14default_deleteIS4_EEC1IPS3_S6_vbEET_, symObjAddr: 0x29A8, symBinAddr: 0x100005DA8, symSize: 0x28 }
  - { offset: 0x2E086, size: 0x8, addend: 0x0, symName: __ZNSt15__uniq_ptr_dataINSt14__tree_barrierISt18__empty_completionE9__state_tESt14default_deleteIA_S3_ELb1ELb1EECI1St15__uniq_ptr_implIS3_S6_EEPS3_, symObjAddr: 0x2980, symBinAddr: 0x100005D80, symSize: 0x28 }
  - { offset: 0x2E0CF, size: 0x8, addend: 0x0, symName: __ZNSt10_Head_baseILm0EPNSt14__tree_barrierISt18__empty_completionE9__state_tELb0EEC2Ev, symObjAddr: 0x2964, symBinAddr: 0x100005D64, symSize: 0x1C }
  - { offset: 0x2E0F1, size: 0x8, addend: 0x0, symName: __ZNSt12_Destroy_auxILb1EE9__destroyIP16partial_result_tEEvT_S4_, symObjAddr: 0x294C, symBinAddr: 0x100005D4C, symSize: 0x18 }
  - { offset: 0x2E125, size: 0x8, addend: 0x0, symName: __ZNSt12_Destroy_auxILb0EE9__destroyIP16partial_result_tEEvT_S4_, symObjAddr: 0x2900, symBinAddr: 0x100005D00, symSize: 0x4C }
  - { offset: 0x2E167, size: 0x8, addend: 0x0, symName: __ZSt25__uninitialized_default_nIP16partial_result_tmET_S2_T0_, symObjAddr: 0x28B0, symBinAddr: 0x100005CB0, symSize: 0x50 }
  - { offset: 0x2E1FB, size: 0x8, addend: 0x0, symName: __ZNSt12_Vector_baseI16partial_result_tSaIS0_EE11_M_allocateEm, symObjAddr: 0x27EC, symBinAddr: 0x100005BEC, symSize: 0xC4 }
  - { offset: 0x2E2A5, size: 0x8, addend: 0x0, symName: __ZNSt12_Destroy_auxILb0EE9__destroyIPSt6threadEEvT_S4_, symObjAddr: 0x27A0, symBinAddr: 0x100005BA0, symSize: 0x4C }
  - { offset: 0x2E2E7, size: 0x8, addend: 0x0, symName: __ZSt25__uninitialized_default_nIPSt6threadmET_S2_T0_, symObjAddr: 0x2754, symBinAddr: 0x100005B54, symSize: 0x4C }
  - { offset: 0x2E37B, size: 0x8, addend: 0x0, symName: __ZNSt12_Vector_baseISt6threadSaIS0_EE11_M_allocateEm, symObjAddr: 0x2690, symBinAddr: 0x100005A90, symSize: 0xC4 }
  - { offset: 0x2E425, size: 0x8, addend: 0x0, symName: __ZSt3minImERKT_S2_S2_, symObjAddr: 0x2658, symBinAddr: 0x100005A58, symSize: 0x38 }
  - { offset: 0x2E46B, size: 0x8, addend: 0x0, symName: __ZNKSt14default_deleteINSt6thread6_StateEEclEPS1_, symObjAddr: 0x2620, symBinAddr: 0x100005A20, symSize: 0x38 }
  - { offset: 0x2E4A8, size: 0x8, addend: 0x0, symName: __ZSt4moveIRPNSt6thread6_StateEEONSt16remove_referenceIT_E4typeEOS5_, symObjAddr: 0x260C, symBinAddr: 0x100005A0C, symSize: 0x14 }
  - { offset: 0x2E4DE, size: 0x8, addend: 0x0, symName: __ZNSt10unique_ptrINSt6thread6_StateESt14default_deleteIS1_EE11get_deleterEv, symObjAddr: 0x25F0, symBinAddr: 0x1000059F0, symSize: 0x1C }
  - { offset: 0x2E508, size: 0x8, addend: 0x0, symName: __ZNSt15__uniq_ptr_implINSt6thread6_StateESt14default_deleteIS1_EE6_M_ptrEv, symObjAddr: 0x25D4, symBinAddr: 0x1000059D4, symSize: 0x1C }
  - { offset: 0x2E559, size: 0x8, addend: 0x0, symName: __ZNSt15__uniq_ptr_implINSt6thread6_StateESt14default_deleteIS1_EEC2EPS1_, symObjAddr: 0x2598, symBinAddr: 0x100005998, symSize: 0x3C }
  - { offset: 0x2E5C2, size: 0x8, addend: 0x0, symName: __ZNSt6thread8_InvokerISt5tupleIJZ10vector_modPKmmmEUljE_mEEEC1IJRS4_RmEEEDpOT_, symObjAddr: 0x2548, symBinAddr: 0x100005948, symSize: 0x50 }
  - { offset: 0x2E63B, size: 0x8, addend: 0x0, symName: __ZNSt7barrierISt18__empty_completionE13arrival_tokenC1ESt17__barrier_phase_t, symObjAddr: 0x2520, symBinAddr: 0x100005920, symSize: 0x28 }
  - { offset: 0x2E66A, size: 0x8, addend: 0x0, symName: __ZNSt14__tree_barrierISt18__empty_completionE6arriveEl, symObjAddr: 0x2304, symBinAddr: 0x100005704, symSize: 0x21C }
  - { offset: 0x2E878, size: 0x8, addend: 0x0, symName: __ZNKSt14__tree_barrierISt18__empty_completionE4waitEOSt17__barrier_phase_t, symObjAddr: 0x22B4, symBinAddr: 0x1000056B4, symSize: 0x50 }
  - { offset: 0x2E96D, size: 0x8, addend: 0x0, symName: __ZZNKSt14__tree_barrierISt18__empty_completionE4waitEOSt17__barrier_phase_tENKUlvE_clEv, symObjAddr: 0x227C, symBinAddr: 0x10000567C, symSize: 0x38 }
  - { offset: 0x2E9C5, size: 0x8, addend: 0x0, symName: __ZSt4moveIRSt17__barrier_phase_tEONSt16remove_referenceIT_E4typeEOS3_, symObjAddr: 0x2268, symBinAddr: 0x100005668, symSize: 0x14 }
  - { offset: 0x2E9FB, size: 0x8, addend: 0x0, symName: __ZNSt15__uniq_ptr_implINSt14__tree_barrierISt18__empty_completionE9__state_tESt14default_deleteIA_S3_EE10_M_deleterEv, symObjAddr: 0x224C, symBinAddr: 0x10000564C, symSize: 0x1C }
  - { offset: 0x2EA28, size: 0x8, addend: 0x0, symName: __ZSt3getILm0EJPNSt14__tree_barrierISt18__empty_completionE9__state_tESt14default_deleteIA_S3_EEERNSt13tuple_elementIXT_ESt5tupleIJDpT0_EEE4typeERSC_, symObjAddr: 0x2230, symBinAddr: 0x100005630, symSize: 0x1C }
  - { offset: 0x2EA73, size: 0x8, addend: 0x0, symName: __ZNSt15__uniq_ptr_implINSt14__tree_barrierISt18__empty_completionE9__state_tESt14default_deleteIA_S3_EEaSEOS7_, symObjAddr: 0x21EC, symBinAddr: 0x1000055EC, symSize: 0x44 }
  - { offset: 0x2EAB1, size: 0x8, addend: 0x0, symName: __ZSt11make_uniqueIA_NSt14__tree_barrierISt18__empty_completionE9__state_tEENSt8__detail9_MakeUniqIT_E7__arrayEm, symObjAddr: 0x2160, symBinAddr: 0x100005560, symSize: 0x8C }
  - { offset: 0x2EB0B, size: 0x8, addend: 0x0, symName: __ZNSt10unique_ptrIA_NSt14__tree_barrierISt18__empty_completionE9__state_tESt14default_deleteIS4_EEC1IS6_vEEv, symObjAddr: 0x2138, symBinAddr: 0x100005538, symSize: 0x28 }
  - { offset: 0x2EB57, size: 0x8, addend: 0x0, symName: __ZNSt15__uniq_ptr_dataINSt14__tree_barrierISt18__empty_completionE9__state_tESt14default_deleteIA_S3_ELb1ELb1EEC1Ev, symObjAddr: 0x2118, symBinAddr: 0x100005518, symSize: 0x20 }
  - { offset: 0x2EB97, size: 0x8, addend: 0x0, symName: __ZNSt15__uniq_ptr_implINSt14__tree_barrierISt18__empty_completionE9__state_tESt14default_deleteIA_S3_EEC2Ev, symObjAddr: 0x20F8, symBinAddr: 0x1000054F8, symSize: 0x20 }
  - { offset: 0x2EBD7, size: 0x8, addend: 0x0, symName: __ZNSt10_Head_baseILm1ESt14default_deleteIA_NSt14__tree_barrierISt18__empty_completionE9__state_tEELb1EEC2Ev, symObjAddr: 0x20E4, symBinAddr: 0x1000054E4, symSize: 0x14 }
  - { offset: 0x2EC17, size: 0x8, addend: 0x0, symName: __ZNSt11_Tuple_implILm1EJSt14default_deleteIA_NSt14__tree_barrierISt18__empty_completionE9__state_tEEEEC2Ev, symObjAddr: 0x20C4, symBinAddr: 0x1000054C4, symSize: 0x20 }
  - { offset: 0x2EC57, size: 0x8, addend: 0x0, symName: __ZNSt11_Tuple_implILm0EJPNSt14__tree_barrierISt18__empty_completionE9__state_tESt14default_deleteIA_S3_EEEC2Ev, symObjAddr: 0x209C, symBinAddr: 0x10000549C, symSize: 0x28 }
  - { offset: 0x2EC97, size: 0x8, addend: 0x0, symName: __ZNSt5tupleIJPNSt14__tree_barrierISt18__empty_completionE9__state_tESt14default_deleteIA_S3_EEEC1EvQfraa26is_default_constructible_vIT_E, symObjAddr: 0x207C, symBinAddr: 0x10000547C, symSize: 0x20 }
  - { offset: 0x2ECB9, size: 0x8, addend: 0x0, symName: __ZSt8_DestroyIP16partial_result_tEvT_S2_, symObjAddr: 0x2038, symBinAddr: 0x100005438, symSize: 0x44 }
  - { offset: 0x2ED14, size: 0x8, addend: 0x0, symName: __ZSt27__uninitialized_default_n_aIP16partial_result_tmS0_ET_S2_T0_RSaIT1_E, symObjAddr: 0x2010, symBinAddr: 0x100005410, symSize: 0x28 }
  - { offset: 0x2ED77, size: 0x8, addend: 0x0, symName: __ZNSt12_Vector_baseI16partial_result_tSaIS0_EE13_M_deallocateEPS0_m, symObjAddr: 0x1F84, symBinAddr: 0x100005384, symSize: 0x8C }
  - { offset: 0x2EE49, size: 0x8, addend: 0x0, symName: __ZNSt12_Vector_baseI16partial_result_tSaIS0_EE17_M_create_storageEm, symObjAddr: 0x1F24, symBinAddr: 0x100005324, symSize: 0x60 }
  - { offset: 0x2EE80, size: 0x8, addend: 0x0, symName: __ZNSt6vectorI16partial_result_tSaIS0_EE11_S_max_sizeERKS1_, symObjAddr: 0x1EF0, symBinAddr: 0x1000052F0, symSize: 0x34 }
  - { offset: 0x2EECC, size: 0x8, addend: 0x0, symName: __ZSt8_DestroyIPSt6threadEvT_S2_, symObjAddr: 0x1EAC, symBinAddr: 0x1000052AC, symSize: 0x44 }
  - { offset: 0x2EF27, size: 0x8, addend: 0x0, symName: __ZSt27__uninitialized_default_n_aIPSt6threadmS0_ET_S2_T0_RSaIT1_E, symObjAddr: 0x1E84, symBinAddr: 0x100005284, symSize: 0x28 }
  - { offset: 0x2EF8A, size: 0x8, addend: 0x0, symName: __ZNSt12_Vector_baseISt6threadSaIS0_EE13_M_deallocateEPS0_m, symObjAddr: 0x1DF8, symBinAddr: 0x1000051F8, symSize: 0x8C }
  - { offset: 0x2F05C, size: 0x8, addend: 0x0, symName: __ZNSt12_Vector_baseISt6threadSaIS0_EE17_M_create_storageEm, symObjAddr: 0x1D98, symBinAddr: 0x100005198, symSize: 0x60 }
  - { offset: 0x2F093, size: 0x8, addend: 0x0, symName: __ZNSt6vectorISt6threadSaIS0_EE11_S_max_sizeERKS1_, symObjAddr: 0x1D64, symBinAddr: 0x100005164, symSize: 0x34 }
  - { offset: 0x2F0DF, size: 0x8, addend: 0x0, symName: __ZNSt8__detail13__waiter_baseINS_13__waiter_poolEE6_S_forEPKv, symObjAddr: 0x1D40, symBinAddr: 0x100005140, symSize: 0x24 }
  - { offset: 0x2F146, size: 0x8, addend: 0x0, symName: __ZN9__gnu_cxx17__normal_iteratorIPSt6threadSt6vectorIS1_SaIS1_EEEC1ERKS2_, symObjAddr: 0x1D18, symBinAddr: 0x100005118, symSize: 0x28 }
  - { offset: 0x2F1AA, size: 0x8, addend: 0x0, symName: __ZNSt10unique_ptrINSt6thread6_StateESt14default_deleteIS1_EED1Ev, symObjAddr: 0x1CB0, symBinAddr: 0x1000050B0, symSize: 0x68 }
  - { offset: 0x2F22E, size: 0x8, addend: 0x0, symName: __ZNSt10unique_ptrINSt6thread6_StateESt14default_deleteIS1_EEC1IS3_vEEPS1_, symObjAddr: 0x1C88, symBinAddr: 0x100005088, symSize: 0x28 }
  - { offset: 0x2F288, size: 0x8, addend: 0x0, symName: __ZNSt15__uniq_ptr_dataINSt6thread6_StateESt14default_deleteIS1_ELb1ELb1EECI1St15__uniq_ptr_implIS1_S3_EEPS1_, symObjAddr: 0x1C60, symBinAddr: 0x100005060, symSize: 0x28 }
  - { offset: 0x2F2F0, size: 0x8, addend: 0x0, symName: __ZNSt6thread11_State_implINS_8_InvokerISt5tupleIJZ10vector_modPKmmmEUljE_mEEEEEC1IJRS5_RmEEEDpOT_, symObjAddr: 0x1BF4, symBinAddr: 0x100004FF4, symSize: 0x6C }
  - { offset: 0x2F35E, size: 0x8, addend: 0x0, symName: __ZNSt6thread6_StateC2Ev, symObjAddr: 0x1BCC, symBinAddr: 0x100004FCC, symSize: 0x28 }
  - { offset: 0x2F387, size: 0x8, addend: 0x0, symName: __ZSt7forwardIRmEOT_RNSt16remove_referenceIS1_E4typeE, symObjAddr: 0x1BB8, symBinAddr: 0x100004FB8, symSize: 0x14 }
  - { offset: 0x2F3C0, size: 0x8, addend: 0x0, symName: __ZSt7forwardIRZ10vector_modPKmmmEUljE_EOT_RNSt16remove_referenceIS4_E4typeE, symObjAddr: 0x1BA4, symBinAddr: 0x100004FA4, symSize: 0x14 }
  - { offset: 0x2F3F6, size: 0x8, addend: 0x0, symName: __ZNSt7barrierISt18__empty_completionE6arriveEl, symObjAddr: 0x1B70, symBinAddr: 0x100004F70, symSize: 0x34 }
  - { offset: 0x2F430, size: 0x8, addend: 0x0, symName: __ZNKSt7barrierISt18__empty_completionE4waitEONS1_13arrival_tokenE, symObjAddr: 0x1B34, symBinAddr: 0x100004F34, symSize: 0x3C }
  - { offset: 0x2F475, size: 0x8, addend: 0x0, symName: __ZNKSt14default_deleteIA_NSt14__tree_barrierISt18__empty_completionE9__state_tEEclIS3_EENSt9enable_ifIXsrSt14is_convertibleIPA_T_PS4_E5valueEvE4typeEPS9_, symObjAddr: 0x1B00, symBinAddr: 0x100004F00, symSize: 0x34 }
  - { offset: 0x2F4B8, size: 0x8, addend: 0x0, symName: __ZNSt10unique_ptrIA_NSt14__tree_barrierISt18__empty_completionE9__state_tESt14default_deleteIS4_EE11get_deleterEv, symObjAddr: 0x1AE4, symBinAddr: 0x100004EE4, symSize: 0x1C }
  - { offset: 0x2F4E2, size: 0x8, addend: 0x0, symName: __ZNSt15__uniq_ptr_implINSt14__tree_barrierISt18__empty_completionE9__state_tESt14default_deleteIA_S3_EE6_M_ptrEv, symObjAddr: 0x1AC8, symBinAddr: 0x100004EC8, symSize: 0x1C }
  - { offset: 0x2F550, size: 0x8, addend: 0x0, symName: __ZNSt14__tree_barrierISt18__empty_completionEC1ElS0_, symObjAddr: 0x1A14, symBinAddr: 0x100004E14, symSize: 0xB4 }
  - { offset: 0x2F5B5, size: 0x8, addend: 0x0, symName: __ZNSt10unique_ptrIA_NSt14__tree_barrierISt18__empty_completionE9__state_tESt14default_deleteIS4_EEaSEOS7_, symObjAddr: 0x19EC, symBinAddr: 0x100004DEC, symSize: 0x28 }
  - { offset: 0x2F5E8, size: 0x8, addend: 0x0, symName: __ZNSt15__uniq_ptr_dataINSt14__tree_barrierISt18__empty_completionE9__state_tESt14default_deleteIA_S3_ELb1ELb1EEaSEOS7_, symObjAddr: 0x19C4, symBinAddr: 0x100004DC4, symSize: 0x28 }
  - { offset: 0x2F625, size: 0x8, addend: 0x0, symName: __ZSt4moveIRSt18__empty_completionEONSt16remove_referenceIT_E4typeEOS3_, symObjAddr: 0x19B0, symBinAddr: 0x100004DB0, symSize: 0x14 }
  - { offset: 0x2F696, size: 0x8, addend: 0x0, symName: __ZNSt12_Vector_baseI16partial_result_tSaIS0_EE19_M_get_Tp_allocatorEv, symObjAddr: 0x199C, symBinAddr: 0x100004D9C, symSize: 0x14 }
  - { offset: 0x2F6C0, size: 0x8, addend: 0x0, symName: __ZNSt6vectorI16partial_result_tSaIS0_EE21_M_default_initializeEm, symObjAddr: 0x194C, symBinAddr: 0x100004D4C, symSize: 0x50 }
  - { offset: 0x2F71F, size: 0x8, addend: 0x0, symName: __ZNSt12_Vector_baseI16partial_result_tSaIS0_EED2Ev, symObjAddr: 0x18FC, symBinAddr: 0x100004CFC, symSize: 0x50 }
  - { offset: 0x2F77B, size: 0x8, addend: 0x0, symName: __ZNSt12_Vector_baseI16partial_result_tSaIS0_EEC2EmRKS1_, symObjAddr: 0x18A8, symBinAddr: 0x100004CA8, symSize: 0x54 }
  - { offset: 0x2F7DA, size: 0x8, addend: 0x0, symName: __ZNSt12_Vector_baseI16partial_result_tSaIS0_EE12_Vector_implD1Ev, symObjAddr: 0x1888, symBinAddr: 0x100004C88, symSize: 0x20 }
  - { offset: 0x2F83D, size: 0x8, addend: 0x0, symName: __ZNSt12_Vector_baseI16partial_result_tSaIS0_EE17_Vector_impl_dataC2Ev, symObjAddr: 0x185C, symBinAddr: 0x100004C5C, symSize: 0x2C }
  - { offset: 0x2F8C8, size: 0x8, addend: 0x0, symName: __ZNSt12_Vector_baseI16partial_result_tSaIS0_EE12_Vector_implC1ERKS1_, symObjAddr: 0x1810, symBinAddr: 0x100004C10, symSize: 0x4C }
  - { offset: 0x2F94B, size: 0x8, addend: 0x0, symName: __ZNSt6vectorI16partial_result_tSaIS0_EE17_S_check_init_lenEmRKS1_, symObjAddr: 0x179C, symBinAddr: 0x100004B9C, symSize: 0x74 }
  - { offset: 0x2FA52, size: 0x8, addend: 0x0, symName: __ZNSt12_Vector_baseISt6threadSaIS0_EE19_M_get_Tp_allocatorEv, symObjAddr: 0x1788, symBinAddr: 0x100004B88, symSize: 0x14 }
  - { offset: 0x2FA7C, size: 0x8, addend: 0x0, symName: __ZNSt6vectorISt6threadSaIS0_EE21_M_default_initializeEm, symObjAddr: 0x1738, symBinAddr: 0x100004B38, symSize: 0x50 }
  - { offset: 0x2FADB, size: 0x8, addend: 0x0, symName: __ZNSt12_Vector_baseISt6threadSaIS0_EED2Ev, symObjAddr: 0x16E8, symBinAddr: 0x100004AE8, symSize: 0x50 }
  - { offset: 0x2FB37, size: 0x8, addend: 0x0, symName: __ZNSt12_Vector_baseISt6threadSaIS0_EEC2EmRKS1_, symObjAddr: 0x1694, symBinAddr: 0x100004A94, symSize: 0x54 }
  - { offset: 0x2FB96, size: 0x8, addend: 0x0, symName: __ZNSt12_Vector_baseISt6threadSaIS0_EE12_Vector_implD1Ev, symObjAddr: 0x1674, symBinAddr: 0x100004A74, symSize: 0x20 }
  - { offset: 0x2FBF9, size: 0x8, addend: 0x0, symName: __ZNSt12_Vector_baseISt6threadSaIS0_EE17_Vector_impl_dataC2Ev, symObjAddr: 0x1648, symBinAddr: 0x100004A48, symSize: 0x2C }
  - { offset: 0x2FC84, size: 0x8, addend: 0x0, symName: __ZNSt12_Vector_baseISt6threadSaIS0_EE12_Vector_implC1ERKS1_, symObjAddr: 0x15FC, symBinAddr: 0x1000049FC, symSize: 0x4C }
  - { offset: 0x2FD07, size: 0x8, addend: 0x0, symName: __ZNSt6vectorISt6threadSaIS0_EE17_S_check_init_lenEmRKS1_, symObjAddr: 0x1588, symBinAddr: 0x100004988, symSize: 0x74 }
  - { offset: 0x2FDD6, size: 0x8, addend: 0x0, symName: __ZSt4moveIRNSt6thread2idEEONSt16remove_referenceIT_E4typeEOS4_, symObjAddr: 0x1574, symBinAddr: 0x100004974, symSize: 0x14 }
  - { offset: 0x2FE30, size: 0x8, addend: 0x0, symName: __ZNSt8__detail8__waiterISt17integral_constantIbLb1EEED1Ev, symObjAddr: 0x1550, symBinAddr: 0x100004950, symSize: 0x24 }
  - { offset: 0x2FE56, size: 0x8, addend: 0x0, symName: __ZN9__gnu_cxx17__normal_iteratorIPSt6threadSt6vectorIS1_SaIS1_EEEppEv, symObjAddr: 0x1528, symBinAddr: 0x100004928, symSize: 0x28 }
  - { offset: 0x2FE80, size: 0x8, addend: 0x0, symName: __ZNSt6vectorISt6threadSaIS0_EE3endEv, symObjAddr: 0x1500, symBinAddr: 0x100004900, symSize: 0x28 }
  - { offset: 0x2FEAA, size: 0x8, addend: 0x0, symName: __ZNSt6vectorISt6threadSaIS0_EE5beginEv, symObjAddr: 0x14DC, symBinAddr: 0x1000048DC, symSize: 0x24 }
  - { offset: 0x2FF1A, size: 0x8, addend: 0x0, symName: __ZNSt6threadC1IRZ10vector_modPKmmmEUljE_JRmEvEEOT_DpOT0_, symObjAddr: 0x140C, symBinAddr: 0x10000480C, symSize: 0xD0 }
  - { offset: 0x2FF7E, size: 0x8, addend: 0x0, symName: __ZNSt6vectorISt6threadSaIS0_EEixEm, symObjAddr: 0x13E4, symBinAddr: 0x1000047E4, symSize: 0x28 }
  - { offset: 0x2FFB9, size: 0x8, addend: 0x0, symName: __ZNSt7barrierISt18__empty_completionE15arrive_and_waitEv, symObjAddr: 0x13AC, symBinAddr: 0x1000047AC, symSize: 0x38 }
  - { offset: 0x2FFE3, size: 0x8, addend: 0x0, symName: __ZNSt6vectorI16partial_result_tSaIS0_EEixEm, symObjAddr: 0x1384, symBinAddr: 0x100004784, symSize: 0x28 }
  - { offset: 0x30053, size: 0x8, addend: 0x0, symName: __ZNSt10unique_ptrIA_NSt14__tree_barrierISt18__empty_completionE9__state_tESt14default_deleteIS4_EED1Ev, symObjAddr: 0x1328, symBinAddr: 0x100004728, symSize: 0x5C }
  - { offset: 0x300DA, size: 0x8, addend: 0x0, symName: __ZNSt7barrierISt18__empty_completionEC1ElS0_, symObjAddr: 0x12E4, symBinAddr: 0x1000046E4, symSize: 0x44 }
  - { offset: 0x30136, size: 0x8, addend: 0x0, symName: __ZNSt6vectorI16partial_result_tSaIS0_EED1Ev, symObjAddr: 0x1288, symBinAddr: 0x100004688, symSize: 0x5C }
  - { offset: 0x301C8, size: 0x8, addend: 0x0, symName: __ZNSt6vectorI16partial_result_tSaIS0_EEC1EmRKS1_, symObjAddr: 0x1220, symBinAddr: 0x100004620, symSize: 0x68 }
  - { offset: 0x3025A, size: 0x8, addend: 0x0, symName: __ZNSt6vectorISt6threadSaIS0_EED1Ev, symObjAddr: 0x11C4, symBinAddr: 0x1000045C4, symSize: 0x5C }
  - { offset: 0x302EC, size: 0x8, addend: 0x0, symName: __ZNSt6vectorISt6threadSaIS0_EEC1EmRKS1_, symObjAddr: 0x115C, symBinAddr: 0x10000455C, symSize: 0x68 }
  - { offset: 0x3035D, size: 0x8, addend: 0x0, symName: __ZNSt10_Hash_impl4hashIP17_opaque_pthread_tEEmRKT_, symObjAddr: 0x1134, symBinAddr: 0x100004534, symSize: 0x28 }
  - { offset: 0x3038F, size: 0x8, addend: 0x0, symName: __ZSt4swapINSt6thread2idEENSt9enable_ifIXsrSt6__and_IJSt6__not_ISt15__is_tuple_likeIT_EESt21is_move_constructibleIS6_ESt18is_move_assignableIS6_EEE5valueEvE4typeERS6_SG_, symObjAddr: 0x10D8, symBinAddr: 0x1000044D8, symSize: 0x5C }
  - { offset: 0x3040D, size: 0x8, addend: 0x0, symName: __ZNSt13__atomic_baseIlEC1El, symObjAddr: 0x10B4, symBinAddr: 0x1000044B4, symSize: 0x24 }
  - { offset: 0x3043C, size: 0x8, addend: 0x0, symName: __ZNSt8__detail13__waiter_baseINS_13__waiter_poolEE9_M_notifyEbb, symObjAddr: 0x1058, symBinAddr: 0x100004458, symSize: 0x5C }
  - { offset: 0x304AC, size: 0x8, addend: 0x0, symName: __ZNSt8__detail8__waiterISt17integral_constantIbLb0EEED1Ev, symObjAddr: 0x1044, symBinAddr: 0x100004444, symSize: 0x14 }
  - { offset: 0x304F6, size: 0x8, addend: 0x0, symName: __ZNSt10lock_guardISt5mutexED1Ev, symObjAddr: 0x1020, symBinAddr: 0x100004420, symSize: 0x24 }
  - { offset: 0x30543, size: 0x8, addend: 0x0, symName: __ZNSt10lock_guardISt5mutexEC1ERS0_, symObjAddr: 0xFEC, symBinAddr: 0x1000043EC, symSize: 0x34 }
  - { offset: 0x30579, size: 0x8, addend: 0x0, symName: __Z10vector_modPKmmm, symObjAddr: 0xDF8, symBinAddr: 0x1000041F8, symSize: 0x1F4 }
  - { offset: 0x306D4, size: 0x8, addend: 0x0, symName: __ZZ10vector_modPKmmmENKUljE_clEj, symObjAddr: 0xB3C, symBinAddr: 0x100003F3C, symSize: 0x24C }
  - { offset: 0x30978, size: 0x8, addend: 0x0, symName: __ZNK9__gnu_cxx17__normal_iteratorIPSt6threadSt6vectorIS1_SaIS1_EEEdeEv, symObjAddr: 0xDE0, symBinAddr: 0x1000041E0, symSize: 0x18 }
  - { offset: 0x309A5, size: 0x8, addend: 0x0, symName: __ZN9__gnu_cxxeqIPSt6threadSt6vectorIS1_SaIS1_EEEEbRKNS_17__normal_iteratorIT_T0_EESB_QrqXeqcldtfL0p_4baseEcldtfL0p0_4baseERSt14convertible_toIbEE, symObjAddr: 0xD9C, symBinAddr: 0x10000419C, symSize: 0x44 }
  - { offset: 0x309F6, size: 0x8, addend: 0x0, symName: __ZNK9__gnu_cxx17__normal_iteratorIPSt6threadSt6vectorIS1_SaIS1_EEE4baseEv, symObjAddr: 0xD88, symBinAddr: 0x100004188, symSize: 0x14 }
  - { offset: 0x30A47, size: 0x8, addend: 0x0, symName: __ZNSt7barrierISt18__empty_completionED1Ev, symObjAddr: 0xB1C, symBinAddr: 0x100003F1C, symSize: 0x20 }
  - { offset: 0x30A94, size: 0x8, addend: 0x0, symName: __ZNSt14__tree_barrierISt18__empty_completionED1Ev, symObjAddr: 0xAF8, symBinAddr: 0x100003EF8, symSize: 0x24 }
  - { offset: 0x30AC1, size: 0x8, addend: 0x0, symName: __Z19vector_thread_rangemmm, symObjAddr: 0xA4C, symBinAddr: 0x100003E4C, symSize: 0xAC }
  - { offset: 0x30B45, size: 0x8, addend: 0x0, symName: __Z12word_pow_modmm, symObjAddr: 0xA0C, symBinAddr: 0x100003E0C, symSize: 0x40 }
  - { offset: 0x30B89, size: 0x8, addend: 0x0, symName: __Z7pow_modmmm, symObjAddr: 0x990, symBinAddr: 0x100003D90, symSize: 0x7C }
  - { offset: 0x30C16, size: 0x8, addend: 0x0, symName: __ZNSt6threadC1Ev, symObjAddr: 0x970, symBinAddr: 0x100003D70, symSize: 0x20 }
  - { offset: 0x30C38, size: 0x8, addend: 0x0, symName: __ZNSt11this_thread6get_idEv, symObjAddr: 0x94C, symBinAddr: 0x100003D4C, symSize: 0x24 }
  - { offset: 0x30C54, size: 0x8, addend: 0x0, symName: __ZNKSt4hashINSt6thread2idEEclERKS1_, symObjAddr: 0x92C, symBinAddr: 0x100003D2C, symSize: 0x20 }
  - { offset: 0x30C8B, size: 0x8, addend: 0x0, symName: __ZSteqNSt6thread2idES0_, symObjAddr: 0x904, symBinAddr: 0x100003D04, symSize: 0x28 }
  - { offset: 0x30CCA, size: 0x8, addend: 0x0, symName: __ZNKSt6thread8joinableEv, symObjAddr: 0x8D0, symBinAddr: 0x100003CD0, symSize: 0x34 }
  - { offset: 0x30CF4, size: 0x8, addend: 0x0, symName: __ZNSt6thread4swapERS_, symObjAddr: 0x8A8, symBinAddr: 0x100003CA8, symSize: 0x28 }
  - { offset: 0x30D2E, size: 0x8, addend: 0x0, symName: __ZNSt6threadaSEOS_, symObjAddr: 0x868, symBinAddr: 0x100003C68, symSize: 0x40 }
  - { offset: 0x30DA5, size: 0x8, addend: 0x0, symName: __ZNSt6threadD1Ev, symObjAddr: 0x838, symBinAddr: 0x100003C38, symSize: 0x30 }
  - { offset: 0x30DE0, size: 0x8, addend: 0x0, symName: __ZNSt6thread24_M_thread_deps_never_runEv, symObjAddr: 0x830, symBinAddr: 0x100003C30, symSize: 0x8 }
  - { offset: 0x30E23, size: 0x8, addend: 0x0, symName: __ZNSt6thread2idC1EP17_opaque_pthread_t, symObjAddr: 0x80C, symBinAddr: 0x100003C0C, symSize: 0x24 }
  - { offset: 0x30E6C, size: 0x8, addend: 0x0, symName: __ZNSt6thread2idC1Ev, symObjAddr: 0x7F0, symBinAddr: 0x100003BF0, symSize: 0x1C }
  - { offset: 0x30E8E, size: 0x8, addend: 0x0, symName: __ZSt17__size_to_integerm, symObjAddr: 0x7DC, symBinAddr: 0x100003BDC, symSize: 0x14 }
  - { offset: 0x30EB8, size: 0x8, addend: 0x0, symName: __ZSt32__is_valid_cmpexch_failure_orderSt12memory_order, symObjAddr: 0x794, symBinAddr: 0x100003B94, symSize: 0x48 }
  - { offset: 0x30EE1, size: 0x8, addend: 0x0, symName: __ZSt23__cmpexch_failure_orderSt12memory_order, symObjAddr: 0x74C, symBinAddr: 0x100003B4C, symSize: 0x48 }
  - { offset: 0x30F0A, size: 0x8, addend: 0x0, symName: __ZSt24__cmpexch_failure_order2St12memory_order, symObjAddr: 0x70C, symBinAddr: 0x100003B0C, symSize: 0x40 }
  - { offset: 0x30F33, size: 0x8, addend: 0x0, symName: __ZStanSt12memory_orderSt23__memory_order_modifier, symObjAddr: 0x6EC, symBinAddr: 0x100003AEC, symSize: 0x20 }
  - { offset: 0x30F6C, size: 0x8, addend: 0x0, symName: __ZStorSt12memory_orderSt23__memory_order_modifier, symObjAddr: 0x6CC, symBinAddr: 0x100003ACC, symSize: 0x20 }
  - { offset: 0x30FA9, size: 0x8, addend: 0x0, symName: __ZNSt8__detail13__waiter_pool10_M_do_waitEPKmm, symObjAddr: 0x640, symBinAddr: 0x100003A40, symSize: 0x8C }
  - { offset: 0x31026, size: 0x8, addend: 0x0, symName: __ZNSt8__detail18__waiter_pool_base6_S_forEPKv, symObjAddr: 0x550, symBinAddr: 0x100003950, symSize: 0xF0 }
  - { offset: 0x3106B, size: 0x8, addend: 0x0, symName: __ZZNSt8__detail18__waiter_pool_base6_S_forEPKvE3__w, symObjAddr: 0x4040, symBinAddr: 0x10001C000, symSize: 0x0 }
  - { offset: 0x31096, size: 0x8, addend: 0x0, symName: ___tcf_0, symObjAddr: 0x508, symBinAddr: 0x100003908, symSize: 0x48 }
  - { offset: 0x310D6, size: 0x8, addend: 0x0, symName: __ZNSt8__detail18__waiter_pool_baseC1Ev, symObjAddr: 0x4C8, symBinAddr: 0x1000038C8, symSize: 0x40 }
  - { offset: 0x31116, size: 0x8, addend: 0x0, symName: __ZNSt5mutexC1Ev, symObjAddr: 0x4A8, symBinAddr: 0x1000038A8, symSize: 0x20 }
  - { offset: 0x31156, size: 0x8, addend: 0x0, symName: __ZNSt12__mutex_baseC2Ev, symObjAddr: 0x46C, symBinAddr: 0x10000386C, symSize: 0x3C }
  - { offset: 0x311A3, size: 0x8, addend: 0x0, symName: __ZNSt8__detail18__waiter_pool_baseD1Ev, symObjAddr: 0x448, symBinAddr: 0x100003848, symSize: 0x24 }
  - { offset: 0x311C9, size: 0x8, addend: 0x0, symName: __ZNSt8__detail18__waiter_pool_base9_M_notifyEPmbb, symObjAddr: 0x3AC, symBinAddr: 0x1000037AC, symSize: 0x9C }
  - { offset: 0x31246, size: 0x8, addend: 0x0, symName: __ZNKSt8__detail18__waiter_pool_base10_M_waitingEv, symObjAddr: 0x380, symBinAddr: 0x100003780, symSize: 0x2C }
  - { offset: 0x31280, size: 0x8, addend: 0x0, symName: __ZNSt8__detail18__waiter_pool_base13_M_leave_waitEv, symObjAddr: 0x35C, symBinAddr: 0x10000375C, symSize: 0x24 }
  - { offset: 0x312AA, size: 0x8, addend: 0x0, symName: __ZNSt8__detail18__waiter_pool_base13_M_enter_waitEv, symObjAddr: 0x33C, symBinAddr: 0x10000373C, symSize: 0x20 }
  - { offset: 0x312D4, size: 0x8, addend: 0x0, symName: __ZNKSt8__detail21__default_spin_policyclEv, symObjAddr: 0x328, symBinAddr: 0x100003728, symSize: 0x14 }
  - { offset: 0x312FA, size: 0x8, addend: 0x0, symName: __ZNSt8__detail14__thread_relaxEv, symObjAddr: 0x310, symBinAddr: 0x100003710, symSize: 0x18 }
  - { offset: 0x31312, size: 0x8, addend: 0x0, symName: __ZNSt8__detail14__thread_yieldEv, symObjAddr: 0x2F8, symBinAddr: 0x1000036F8, symSize: 0x18 }
  - { offset: 0x3132E, size: 0x8, addend: 0x0, symName: __ZNSt9__condvar10notify_allEv, symObjAddr: 0x2AC, symBinAddr: 0x1000036AC, symSize: 0x4C }
  - { offset: 0x31381, size: 0x8, addend: 0x0, symName: __ZNSt9__condvar4waitERSt5mutex, symObjAddr: 0x244, symBinAddr: 0x100003644, symSize: 0x68 }
  - { offset: 0x31418, size: 0x8, addend: 0x0, symName: __ZNSt9__condvarD1Ev, symObjAddr: 0x1F8, symBinAddr: 0x1000035F8, symSize: 0x4C }
  - { offset: 0x3149E, size: 0x8, addend: 0x0, symName: __ZNSt9__condvarC1Ev, symObjAddr: 0x1C4, symBinAddr: 0x1000035C4, symSize: 0x34 }
  - { offset: 0x314C4, size: 0x8, addend: 0x0, symName: __ZNSt5mutex13native_handleEv, symObjAddr: 0x1B0, symBinAddr: 0x1000035B0, symSize: 0x14 }
  - { offset: 0x314EE, size: 0x8, addend: 0x0, symName: __ZNSt5mutex6unlockEv, symObjAddr: 0x190, symBinAddr: 0x100003590, symSize: 0x20 }
  - { offset: 0x31518, size: 0x8, addend: 0x0, symName: __ZNSt5mutex4lockEv, symObjAddr: 0x158, symBinAddr: 0x100003558, symSize: 0x38 }
  - { offset: 0x31556, size: 0x8, addend: 0x0, symName: __ZL22__gthread_cond_destroyP22_opaque_pthread_cond_t, symObjAddr: 0x13C, symBinAddr: 0x10000353C, symSize: 0x1C }
  - { offset: 0x31588, size: 0x8, addend: 0x0, symName: __ZL19__gthread_cond_waitP22_opaque_pthread_cond_tP23_opaque_pthread_mutex_t, symObjAddr: 0x118, symBinAddr: 0x100003518, symSize: 0x24 }
  - { offset: 0x315D1, size: 0x8, addend: 0x0, symName: __ZL24__gthread_cond_broadcastP22_opaque_pthread_cond_t, symObjAddr: 0xFC, symBinAddr: 0x1000034FC, symSize: 0x1C }
  - { offset: 0x31603, size: 0x8, addend: 0x0, symName: __ZL22__gthread_mutex_unlockP23_opaque_pthread_mutex_t, symObjAddr: 0xBC, symBinAddr: 0x1000034BC, symSize: 0x40 }
  - { offset: 0x31635, size: 0x8, addend: 0x0, symName: __ZL20__gthread_mutex_lockP23_opaque_pthread_mutex_t, symObjAddr: 0x7C, symBinAddr: 0x10000347C, symSize: 0x40 }
  - { offset: 0x31667, size: 0x8, addend: 0x0, symName: __ZL15__gthread_yieldv, symObjAddr: 0x68, symBinAddr: 0x100003468, symSize: 0x14 }
  - { offset: 0x31687, size: 0x8, addend: 0x0, symName: __ZL14__gthread_selfv, symObjAddr: 0x54, symBinAddr: 0x100003454, symSize: 0x14 }
  - { offset: 0x316A7, size: 0x8, addend: 0x0, symName: __ZL18__gthread_active_pv, symObjAddr: 0x4C, symBinAddr: 0x10000344C, symSize: 0x8 }
  - { offset: 0x316BF, size: 0x8, addend: 0x0, symName: __ZNSt10_Hash_impl4hashEPKvmm, symObjAddr: 0x20, symBinAddr: 0x100003420, symSize: 0x2C }
  - { offset: 0x31713, size: 0x8, addend: 0x0, symName: __ZnwmPv, symObjAddr: 0x8, symBinAddr: 0x100003408, symSize: 0x18 }
  - { offset: 0x31745, size: 0x8, addend: 0x0, symName: __ZSt21is_constant_evaluatedv, symObjAddr: 0x0, symBinAddr: 0x100003400, symSize: 0x8 }
  - { offset: 0x42F55, size: 0x8, addend: 0x0, symName: __ZNSt10_Head_baseILm0EZ9randomizePvmEUlmE_Lb0EE7_M_headERS2_, symObjAddr: 0x3468, symBinAddr: 0x100009D24, symSize: 0x14 }
  - { offset: 0x42F7E, size: 0x8, addend: 0x0, symName: __ZNSt11_Tuple_implILm0EJZ9randomizePvmEUlmE_mEE7_M_headERS2_, symObjAddr: 0x342C, symBinAddr: 0x100009D04, symSize: 0x20 }
  - { offset: 0x42FA8, size: 0x8, addend: 0x0, symName: __ZSt13__invoke_implIvZ9randomizePvmEUlmE_JmEET_St14__invoke_otherOT0_DpOT1_, symObjAddr: 0x33E0, symBinAddr: 0x100009CB8, symSize: 0x4C }
  - { offset: 0x4300C, size: 0x8, addend: 0x0, symName: __ZSt7forwardIZ9randomizePvmEUlmE_EOT_RNSt16remove_referenceIS2_E4typeE, symObjAddr: 0x339C, symBinAddr: 0x100009CA4, symSize: 0x14 }
  - { offset: 0x4303E, size: 0x8, addend: 0x0, symName: __ZSt12__get_helperILm0EZ9randomizePvmEUlmE_JmEERT0_RSt11_Tuple_implIXT_EJS2_DpT1_EE, symObjAddr: 0x3380, symBinAddr: 0x100009C88, symSize: 0x1C }
  - { offset: 0x43088, size: 0x8, addend: 0x0, symName: __ZSt8__invokeIZ9randomizePvmEUlmE_JmEENSt15__invoke_resultIT_JDpT0_EE4typeEOS3_DpOS4_, symObjAddr: 0x3338, symBinAddr: 0x100009C40, symSize: 0x48 }
  - { offset: 0x430DD, size: 0x8, addend: 0x0, symName: __ZSt3getILm1EJZ9randomizePvmEUlmE_mEEONSt13tuple_elementIXT_ESt5tupleIJDpT0_EEE4typeEOS6_, symObjAddr: 0x3318, symBinAddr: 0x100009C20, symSize: 0x20 }
  - { offset: 0x4312B, size: 0x8, addend: 0x0, symName: __ZSt3getILm0EJZ9randomizePvmEUlmE_mEEONSt13tuple_elementIXT_ESt5tupleIJDpT0_EEE4typeEOS6_, symObjAddr: 0x32F8, symBinAddr: 0x100009C00, symSize: 0x20 }
  - { offset: 0x43179, size: 0x8, addend: 0x0, symName: __ZSt4moveIRSt5tupleIJZ9randomizePvmEUlmE_mEEEONSt16remove_referenceIT_E4typeEOS6_, symObjAddr: 0x32E4, symBinAddr: 0x100009BEC, symSize: 0x14 }
  - { offset: 0x431AF, size: 0x8, addend: 0x0, symName: __ZNSt6thread8_InvokerISt5tupleIJZ9randomizePvmEUlmE_mEEE9_M_invokeIJLm0ELm1EEEEvSt12_Index_tupleIJXspT_EEE, symObjAddr: 0x3298, symBinAddr: 0x100009BA0, symSize: 0x4C }
  - { offset: 0x431FB, size: 0x8, addend: 0x0, symName: __ZNSt6thread8_InvokerISt5tupleIJZ9randomizePvmEUlmE_mEEEclEv, symObjAddr: 0x3278, symBinAddr: 0x100009B80, symSize: 0x20 }
  - { offset: 0x43225, size: 0x8, addend: 0x0, symName: __ZNSt6thread11_State_implINS_8_InvokerISt5tupleIJZ9randomizePvmEUlmE_mEEEEE6_M_runEv, symObjAddr: 0x3254, symBinAddr: 0x100009B5C, symSize: 0x24 }
  - { offset: 0x43272, size: 0x8, addend: 0x0, symName: __ZNSt6thread11_State_implINS_8_InvokerISt5tupleIJZ9randomizePvmEUlmE_mEEEEED0Ev, symObjAddr: 0x322C, symBinAddr: 0x100009B34, symSize: 0x28 }
  - { offset: 0x43298, size: 0x8, addend: 0x0, symName: __ZNSt6thread11_State_implINS_8_InvokerISt5tupleIJZ9randomizePvmEUlmE_mEEEEED1Ev, symObjAddr: 0x31FC, symBinAddr: 0x100009B04, symSize: 0x30 }
  - { offset: 0x432EA, size: 0x8, addend: 0x0, symName: __ZNSt10_Head_baseILm0EZ9randomizePvmEUlmE_Lb0EEC2IRS1_EEOT_, symObjAddr: 0x30BC, symBinAddr: 0x100009AC0, symSize: 0x44 }
  - { offset: 0x43368, size: 0x8, addend: 0x0, symName: __ZNSt11_Tuple_implILm0EJZ9randomizePvmEUlmE_mEEC2IRS1_JRmEvEEOT_DpOT0_, symObjAddr: 0x2FC4, symBinAddr: 0x100009A64, symSize: 0x5C }
  - { offset: 0x433F7, size: 0x8, addend: 0x0, symName: __ZNSt5tupleIJZ9randomizePvmEUlmE_mEEC1IJRS1_RmEEEDpOT_, symObjAddr: 0x2F1C, symBinAddr: 0x100009A14, symSize: 0x50 }
  - { offset: 0x43445, size: 0x8, addend: 0x0, symName: __ZSt12construct_atISt6threadJS0_EEDTgsnwcvPvLi0E_T_pispcl7declvalIT0_EEEEPS2_DpOS3_, symObjAddr: 0x2ED0, symBinAddr: 0x1000099C8, symSize: 0x4C }
  - { offset: 0x4349A, size: 0x8, addend: 0x0, symName: __ZSt7forwardISt6threadEOT_RNSt16remove_referenceIS1_E4typeE, symObjAddr: 0x2EBC, symBinAddr: 0x1000099B4, symSize: 0x14 }
  - { offset: 0x43500, size: 0x8, addend: 0x0, symName: __ZSt4moveIRxEONSt16remove_referenceIT_E4typeEOS2_, symObjAddr: 0x2EA8, symBinAddr: 0x1000099A0, symSize: 0x14 }
  - { offset: 0x43570, size: 0x8, addend: 0x0, symName: __ZNSt6thread8_InvokerISt5tupleIJZ9randomizePvmEUlmE_mEEEC1IJRS3_RmEEEDpOT_, symObjAddr: 0x2D98, symBinAddr: 0x100009950, symSize: 0x50 }
  - { offset: 0x43638, size: 0x8, addend: 0x0, symName: __ZSt4moveIRSt6threadEONSt16remove_referenceIT_E4typeEOS3_, symObjAddr: 0x2D84, symBinAddr: 0x10000993C, symSize: 0x14 }
  - { offset: 0x4366A, size: 0x8, addend: 0x0, symName: __ZSt19__relocate_object_aIxxSaIxEEvPT_PT0_RT1_, symObjAddr: 0x2CEC, symBinAddr: 0x1000098C4, symSize: 0x78 }
  - { offset: 0x43739, size: 0x8, addend: 0x0, symName: __ZNK9__gnu_cxx17__normal_iteratorIPxvEdeEv, symObjAddr: 0x2CD4, symBinAddr: 0x1000098AC, symSize: 0x18 }
  - { offset: 0x43763, size: 0x8, addend: 0x0, symName: __ZN9__gnu_cxx17__normal_iteratorIPxvEppEv, symObjAddr: 0x2CAC, symBinAddr: 0x100009884, symSize: 0x28 }
  - { offset: 0x43789, size: 0x8, addend: 0x0, symName: __ZSt10destroy_atIxEvPT_, symObjAddr: 0x2C98, symBinAddr: 0x100009870, symSize: 0x14 }
  - { offset: 0x437F8, size: 0x8, addend: 0x0, symName: __ZNSt6thread11_State_implINS_8_InvokerISt5tupleIJZ9randomizePvmEUlmE_mEEEEEC1IJRS4_RmEEEDpOT_, symObjAddr: 0x2B74, symBinAddr: 0x100009804, symSize: 0x6C }
  - { offset: 0x43845, size: 0x8, addend: 0x0, symName: __ZSt19__relocate_object_aISt6threadS0_SaIS0_EEvPT_PT0_RT1_, symObjAddr: 0x2AD4, symBinAddr: 0x10000978C, symSize: 0x78 }
  - { offset: 0x43910, size: 0x8, addend: 0x0, symName: __ZNSt8__detail4_ModIjLj2147483647ELj48271ELj0ELb0ELb1EE6__calcEj, symObjAddr: 0x2950, symBinAddr: 0x1000096E8, symSize: 0xA4 }
  - { offset: 0x439A6, size: 0x8, addend: 0x0, symName: __ZNK9__gnu_cxx17__normal_iteratorIPxvE4baseEv, symObjAddr: 0x293C, symBinAddr: 0x1000096D4, symSize: 0x14 }
  - { offset: 0x439CC, size: 0x8, addend: 0x0, symName: __ZSt14__relocate_a_1IPxN9__gnu_cxx17__normal_iteratorIS0_vEESaIxEET0_T_S6_S5_RT1_, symObjAddr: 0x28B8, symBinAddr: 0x100009650, symSize: 0x84 }
  - { offset: 0x43A59, size: 0x8, addend: 0x0, symName: __ZNSt15__new_allocatorIxE8allocateEmPKv, symObjAddr: 0x283C, symBinAddr: 0x1000095D4, symSize: 0x7C }
  - { offset: 0x43AE1, size: 0x8, addend: 0x0, symName: __ZSt8_DestroyIxEvPT_, symObjAddr: 0x281C, symBinAddr: 0x1000095B4, symSize: 0x20 }
  - { offset: 0x43B13, size: 0x8, addend: 0x0, symName: __ZSt11__addressofIxEPT_RS0_, symObjAddr: 0x2808, symBinAddr: 0x1000095A0, symSize: 0x14 }
  - { offset: 0x43B49, size: 0x8, addend: 0x0, symName: __ZNSt15__new_allocatorIxE10deallocateEPxm, symObjAddr: 0x27D8, symBinAddr: 0x100009570, symSize: 0x30 }
  - { offset: 0x43BD9, size: 0x8, addend: 0x0, symName: __ZNSt6threadC1IRZ9randomizePvmEUlmE_JRmEvEEOT_DpOT0_, symObjAddr: 0x2708, symBinAddr: 0x1000094A0, symSize: 0xD0 }
  - { offset: 0x43C39, size: 0x8, addend: 0x0, symName: __ZSt14__relocate_a_1IPSt6threadS1_SaIS0_EET0_T_S4_S3_RT1_, symObjAddr: 0x2684, symBinAddr: 0x10000941C, symSize: 0x84 }
  - { offset: 0x43CC2, size: 0x8, addend: 0x0, symName: __ZSt12__niter_baseIPSt6threadET_S2_, symObjAddr: 0x2670, symBinAddr: 0x100009408, symSize: 0x14 }
  - { offset: 0x43D25, size: 0x8, addend: 0x0, symName: __ZNSt8__detail5__modIjLj2147483647ELj48271ELj0EEET_S1_, symObjAddr: 0x2608, symBinAddr: 0x1000093EC, symSize: 0x1C }
  - { offset: 0x43D79, size: 0x8, addend: 0x0, symName: __ZNSt8__detail4_ModIjLj2147483647ELj1ELj0ELb1ELb1EE6__calcEj, symObjAddr: 0x25CC, symBinAddr: 0x1000093B0, symSize: 0x3C }
  - { offset: 0x43DB2, size: 0x8, addend: 0x0, symName: __ZSt14__relocate_a_1IxxENSt9enable_ifIXsrSt24__is_bitwise_relocatableIT_vE5valueEPS2_E4typeES4_S4_S4_RSaIT0_E, symObjAddr: 0x2520, symBinAddr: 0x100009304, symSize: 0xAC }
  - { offset: 0x43E82, size: 0x8, addend: 0x0, symName: __ZN9__gnu_cxx17__normal_iteratorIPxvEC1ERKS1_, symObjAddr: 0x24F8, symBinAddr: 0x1000092DC, symSize: 0x28 }
  - { offset: 0x43EAD, size: 0x8, addend: 0x0, symName: __ZSt12__niter_baseIPxET_S1_, symObjAddr: 0x24E4, symBinAddr: 0x1000092C8, symSize: 0x14 }
  - { offset: 0x43F03, size: 0x8, addend: 0x0, symName: __ZNSt12_Destroy_auxILb1EE9__destroyIPxEEvT_S3_, symObjAddr: 0x24CC, symBinAddr: 0x1000092B0, symSize: 0x18 }
  - { offset: 0x43F37, size: 0x8, addend: 0x0, symName: __ZNSt12_Destroy_auxILb0EE9__destroyIPxEEvT_S3_, symObjAddr: 0x2480, symBinAddr: 0x100009264, symSize: 0x4C }
  - { offset: 0x43FAD, size: 0x8, addend: 0x0, symName: __ZNK9__gnu_cxx17__normal_iteratorIPSt6threadSt6vectorIS1_SaIS1_EEEmiEl, symObjAddr: 0x243C, symBinAddr: 0x100009220, symSize: 0x44 }
  - { offset: 0x43FE4, size: 0x8, addend: 0x0, symName: __ZSt12__to_addressISt6threadEPT_S2_, symObjAddr: 0x2428, symBinAddr: 0x10000920C, symSize: 0x14 }
  - { offset: 0x44016, size: 0x8, addend: 0x0, symName: __ZSt12construct_atISt6threadJRZ9randomizePvmEUlmE_RmEEDTgsnwcvS1_Li0E_T_pispcl7declvalIT0_EEEEPS5_DpOS6_, symObjAddr: 0x2394, symBinAddr: 0x100009178, symSize: 0x94 }
  - { offset: 0x44073, size: 0x8, addend: 0x0, symName: __ZSt12__relocate_aIPSt6threadS1_SaIS0_EET0_T_S4_S3_RT1_, symObjAddr: 0x2338, symBinAddr: 0x10000911C, symSize: 0x5C }
  - { offset: 0x44121, size: 0x8, addend: 0x0, symName: __ZNSt26linear_congruential_engineIjLj48271ELj0ELj2147483647EEclEv, symObjAddr: 0x22C0, symBinAddr: 0x1000090E8, symSize: 0x34 }
  - { offset: 0x4414B, size: 0x8, addend: 0x0, symName: __ZNKSt24uniform_int_distributionImE10param_type1aEv, symObjAddr: 0x22A8, symBinAddr: 0x1000090D0, symSize: 0x18 }
  - { offset: 0x44175, size: 0x8, addend: 0x0, symName: __ZNKSt24uniform_int_distributionImE10param_type1bEv, symObjAddr: 0x2290, symBinAddr: 0x1000090B8, symSize: 0x18 }
  - { offset: 0x4419B, size: 0x8, addend: 0x0, symName: __ZNSt8__detail5__modIjLj2147483647ELj1ELj0EEET_S1_, symObjAddr: 0x2274, symBinAddr: 0x10000909C, symSize: 0x1C }
  - { offset: 0x44226, size: 0x8, addend: 0x0, symName: __ZNSt24uniform_int_distributionImE10param_typeC1Emm, symObjAddr: 0x220C, symBinAddr: 0x100009034, symSize: 0x68 }
  - { offset: 0x44273, size: 0x8, addend: 0x0, symName: __ZSt12construct_atIxJxEEDTgsnwcvPvLi0E_T_pispcl7declvalIT0_EEEEPS1_DpOS2_, symObjAddr: 0x21C4, symBinAddr: 0x100008FEC, symSize: 0x48 }
  - { offset: 0x442C1, size: 0x8, addend: 0x0, symName: __ZSt12__to_addressIxEPT_S1_, symObjAddr: 0x21B0, symBinAddr: 0x100008FD8, symSize: 0x14 }
  - { offset: 0x442F7, size: 0x8, addend: 0x0, symName: __ZNK9__gnu_cxx17__normal_iteratorIPxSt6vectorIxSaIxEEE4baseEv, symObjAddr: 0x219C, symBinAddr: 0x100008FC4, symSize: 0x14 }
  - { offset: 0x4431D, size: 0x8, addend: 0x0, symName: __ZSt12construct_atIxJjEEDTgsnwcvPvLi0E_T_pispcl7declvalIT0_EEEEPS1_DpOS2_, symObjAddr: 0x2150, symBinAddr: 0x100008F78, symSize: 0x4C }
  - { offset: 0x4436B, size: 0x8, addend: 0x0, symName: __ZSt12__relocate_aIPxS0_SaIxEET0_T_S3_S2_RT1_, symObjAddr: 0x20F4, symBinAddr: 0x100008F1C, symSize: 0x5C }
  - { offset: 0x44407, size: 0x8, addend: 0x0, symName: __ZSt8_DestroyIPxEvT_S1_, symObjAddr: 0x20B0, symBinAddr: 0x100008ED8, symSize: 0x44 }
  - { offset: 0x44498, size: 0x8, addend: 0x0, symName: __ZNSt6vectorISt6threadSaIS0_EE4backEv, symObjAddr: 0x2078, symBinAddr: 0x100008EA0, symSize: 0x38 }
  - { offset: 0x444C2, size: 0x8, addend: 0x0, symName: __ZNSt6vectorISt6threadSaIS0_EE17_M_realloc_appendIJRZ9randomizePvmEUlmE_RmEEEvDpOT_, symObjAddr: 0x1EB0, symBinAddr: 0x100008CD8, symSize: 0x1C8 }
  - { offset: 0x4464D, size: 0x8, addend: 0x0, symName: __ZZNSt6vectorISt6threadSaIS0_EE17_M_realloc_appendIJRZ9randomizePvmEUlmE_RmEEEvDpOT_EN6_GuardC1EPS0_mRS1_, symObjAddr: 0x1DD8, symBinAddr: 0x100008C00, symSize: 0x44 }
  - { offset: 0x4468E, size: 0x8, addend: 0x0, symName: __ZZNSt6vectorISt6threadSaIS0_EE17_M_realloc_appendIJRZ9randomizePvmEUlmE_RmEEEvDpOT_EN6_GuardD1Ev, symObjAddr: 0x1E1C, symBinAddr: 0x100008C44, symSize: 0x94 }
  - { offset: 0x44798, size: 0x8, addend: 0x0, symName: __ZN9__gnu_cxxmiIPSt6threadSt6vectorIS1_SaIS1_EEEENS_17__normal_iteratorIT_T0_E15difference_typeERKS9_SC_, symObjAddr: 0x1D98, symBinAddr: 0x100008BC0, symSize: 0x40 }
  - { offset: 0x447E9, size: 0x8, addend: 0x0, symName: __ZNKSt6vectorISt6threadSaIS0_EE12_M_check_lenEmPKc, symObjAddr: 0x1CA0, symBinAddr: 0x100008AF0, symSize: 0xD0 }
  - { offset: 0x44846, size: 0x8, addend: 0x0, symName: __ZNKSt12_Vector_baseISt6threadSaIS0_EE19_M_get_Tp_allocatorEv, symObjAddr: 0x1C58, symBinAddr: 0x100008ADC, symSize: 0x14 }
  - { offset: 0x448C4, size: 0x8, addend: 0x0, symName: __ZSt7forwardIRZ9randomizePvmEUlmE_EOT_RNSt16remove_referenceIS3_E4typeE, symObjAddr: 0x1C30, symBinAddr: 0x100008AC8, symSize: 0x14 }
  - { offset: 0x448F6, size: 0x8, addend: 0x0, symName: __ZNSt6vectorISt6threadSaIS0_EE11_S_relocateEPS0_S3_S3_RS1_, symObjAddr: 0x1BFC, symBinAddr: 0x100008A94, symSize: 0x34 }
  - { offset: 0x44957, size: 0x8, addend: 0x0, symName: __ZNKSt6vectorISt6threadSaIS0_EE8max_sizeEv, symObjAddr: 0x1B18, symBinAddr: 0x100008A74, symSize: 0x20 }
  - { offset: 0x44988, size: 0x8, addend: 0x0, symName: __ZNSt24uniform_int_distributionImEclISt26linear_congruential_engineIjLj48271ELj0ELj2147483647EEEEmRT_RKNS0_10param_typeE, symObjAddr: 0x18CC, symBinAddr: 0x1000088C8, symSize: 0x1AC }
  - { offset: 0x44AEA, size: 0x8, addend: 0x0, symName: __ZNSt26linear_congruential_engineIjLj48271ELj0ELj2147483647EE4seedEj, symObjAddr: 0x1854, symBinAddr: 0x100008850, symSize: 0x78 }
  - { offset: 0x44B58, size: 0x8, addend: 0x0, symName: __ZNSt24uniform_int_distributionImEC1Emm, symObjAddr: 0x1824, symBinAddr: 0x100008820, symSize: 0x30 }
  - { offset: 0x44B90, size: 0x8, addend: 0x0, symName: __ZNSt6vectorIxSaIxEE17_M_realloc_appendIJxEEEvDpOT_, symObjAddr: 0x169C, symBinAddr: 0x100008698, symSize: 0x188 }
  - { offset: 0x44D17, size: 0x8, addend: 0x0, symName: __ZZNSt6vectorIxSaIxEE17_M_realloc_appendIJxEEEvDpOT_EN6_GuardC1EPxmRS0_, symObjAddr: 0x15C4, symBinAddr: 0x1000085C0, symSize: 0x44 }
  - { offset: 0x44D5C, size: 0x8, addend: 0x0, symName: __ZZNSt6vectorIxSaIxEE17_M_realloc_appendIJxEEEvDpOT_EN6_GuardD1Ev, symObjAddr: 0x1608, symBinAddr: 0x100008604, symSize: 0x94 }
  - { offset: 0x44EAE, size: 0x8, addend: 0x0, symName: __ZSt7forwardIxEOT_RNSt16remove_referenceIS0_E4typeE, symObjAddr: 0x15B0, symBinAddr: 0x1000085AC, symSize: 0x14 }
  - { offset: 0x44EE4, size: 0x8, addend: 0x0, symName: __ZNSt6vectorIxSaIxEE17_M_realloc_appendIJjEEEvDpOT_, symObjAddr: 0x1428, symBinAddr: 0x100008424, symSize: 0x188 }
  - { offset: 0x4506B, size: 0x8, addend: 0x0, symName: __ZZNSt6vectorIxSaIxEE17_M_realloc_appendIJjEEEvDpOT_EN6_GuardC1EPxmRS0_, symObjAddr: 0x1350, symBinAddr: 0x10000834C, symSize: 0x44 }
  - { offset: 0x450B0, size: 0x8, addend: 0x0, symName: __ZZNSt6vectorIxSaIxEE17_M_realloc_appendIJjEEEvDpOT_EN6_GuardD1Ev, symObjAddr: 0x1394, symBinAddr: 0x100008390, symSize: 0x94 }
  - { offset: 0x451B9, size: 0x8, addend: 0x0, symName: __ZNSt6vectorIxSaIxEE5beginEv, symObjAddr: 0x132C, symBinAddr: 0x100008328, symSize: 0x24 }
  - { offset: 0x451E6, size: 0x8, addend: 0x0, symName: __ZN9__gnu_cxxmiIPxSt6vectorIxSaIxEEEENS_17__normal_iteratorIT_T0_E15difference_typeERKS8_SB_, symObjAddr: 0x12EC, symBinAddr: 0x1000082E8, symSize: 0x40 }
  - { offset: 0x45237, size: 0x8, addend: 0x0, symName: __ZNKSt6vectorIxSaIxEE12_M_check_lenEmPKc, symObjAddr: 0x121C, symBinAddr: 0x100008218, symSize: 0xD0 }
  - { offset: 0x45290, size: 0x8, addend: 0x0, symName: __ZSt3maxImERKT_S2_S2_, symObjAddr: 0x11E4, symBinAddr: 0x1000081E0, symSize: 0x38 }
  - { offset: 0x452D4, size: 0x8, addend: 0x0, symName: __ZNSt6vectorIxSaIxEE11_S_max_sizeERKS0_, symObjAddr: 0x11B0, symBinAddr: 0x1000081AC, symSize: 0x34 }
  - { offset: 0x45324, size: 0x8, addend: 0x0, symName: __ZNKSt12_Vector_baseIxSaIxEE19_M_get_Tp_allocatorEv, symObjAddr: 0x119C, symBinAddr: 0x100008198, symSize: 0x14 }
  - { offset: 0x45397, size: 0x8, addend: 0x0, symName: __ZSt7forwardIjEOT_RNSt16remove_referenceIS0_E4typeE, symObjAddr: 0x1188, symBinAddr: 0x100008184, symSize: 0x14 }
  - { offset: 0x453C9, size: 0x8, addend: 0x0, symName: __ZNSt6vectorIxSaIxEE11_S_relocateEPxS2_S2_RS0_, symObjAddr: 0x1154, symBinAddr: 0x100008150, symSize: 0x34 }
  - { offset: 0x4542A, size: 0x8, addend: 0x0, symName: __ZNSt12_Vector_baseIxSaIxEE11_M_allocateEm, symObjAddr: 0x1090, symBinAddr: 0x10000808C, symSize: 0xC4 }
  - { offset: 0x454D8, size: 0x8, addend: 0x0, symName: __ZNKSt6vectorIxSaIxEE8max_sizeEv, symObjAddr: 0x1070, symBinAddr: 0x10000806C, symSize: 0x20 }
  - { offset: 0x4553D, size: 0x8, addend: 0x0, symName: __ZNSt12_Vector_baseIxSaIxEE19_M_get_Tp_allocatorEv, symObjAddr: 0x105C, symBinAddr: 0x100008058, symSize: 0x14 }
  - { offset: 0x45567, size: 0x8, addend: 0x0, symName: __ZNSt12_Vector_baseIxSaIxEE13_M_deallocateEPxm, symObjAddr: 0xFD0, symBinAddr: 0x100007FCC, symSize: 0x8C }
  - { offset: 0x45639, size: 0x8, addend: 0x0, symName: __ZNSt6vectorISt6threadSaIS0_EE12emplace_backIJRZ9randomizePvmEUlmE_RmEEERS0_DpOT_, symObjAddr: 0xE30, symBinAddr: 0x100007EEC, symSize: 0xE0 }
  - { offset: 0x456CC, size: 0x8, addend: 0x0, symName: __ZNSt6vectorISt6threadSaIS0_EE7reserveEm, symObjAddr: 0xCF4, symBinAddr: 0x100007DB0, symSize: 0x13C }
  - { offset: 0x45739, size: 0x8, addend: 0x0, symName: __ZNKSt6vectorISt6threadSaIS0_EE4sizeEv, symObjAddr: 0xCCC, symBinAddr: 0x100007D88, symSize: 0x28 }
  - { offset: 0x45763, size: 0x8, addend: 0x0, symName: __ZNKSt6vectorISt6threadSaIS0_EE8capacityEv, symObjAddr: 0xCA4, symBinAddr: 0x100007D60, symSize: 0x28 }
  - { offset: 0x4578D, size: 0x8, addend: 0x0, symName: __ZNSt24uniform_int_distributionImEclISt26linear_congruential_engineIjLj48271ELj0ELj2147483647EEEEmRT_, symObjAddr: 0xBCC, symBinAddr: 0x100007D34, symSize: 0x2C }
  - { offset: 0x457F8, size: 0x8, addend: 0x0, symName: __ZNSt26linear_congruential_engineIjLj48271ELj0ELj2147483647EEC1Ej, symObjAddr: 0xBA4, symBinAddr: 0x100007D0C, symSize: 0x28 }
  - { offset: 0x45827, size: 0x8, addend: 0x0, symName: __ZNSt6vectorIxSaIxEEixEm, symObjAddr: 0xB7C, symBinAddr: 0x100007CE4, symSize: 0x28 }
  - { offset: 0x4587C, size: 0x8, addend: 0x0, symName: __ZNSt24uniform_int_distributionImEC1Ev, symObjAddr: 0xB54, symBinAddr: 0x100007CBC, symSize: 0x28 }
  - { offset: 0x458A2, size: 0x8, addend: 0x0, symName: __ZNSt6vectorIxSaIxEE12emplace_backIJxEEERxDpOT_, symObjAddr: 0xAB0, symBinAddr: 0x100007C18, symSize: 0xA4 }
  - { offset: 0x4591D, size: 0x8, addend: 0x0, symName: __ZNK9__gnu_cxx17__normal_iteratorIPxSt6vectorIxSaIxEEEdeEv, symObjAddr: 0xA98, symBinAddr: 0x100007C00, symSize: 0x18 }
  - { offset: 0x45947, size: 0x8, addend: 0x0, symName: __ZNK9__gnu_cxx17__normal_iteratorIPxSt6vectorIxSaIxEEEmiEl, symObjAddr: 0xA54, symBinAddr: 0x100007BBC, symSize: 0x44 }
  - { offset: 0x45982, size: 0x8, addend: 0x0, symName: __ZNSt6vectorIxSaIxEE12emplace_backIJjEEERxDpOT_, symObjAddr: 0x9B0, symBinAddr: 0x100007B18, symSize: 0xA4 }
  - { offset: 0x459FD, size: 0x8, addend: 0x0, symName: __ZNSt6vectorIxSaIxEE7reserveEm, symObjAddr: 0x874, symBinAddr: 0x1000079DC, symSize: 0x13C }
  - { offset: 0x45A6A, size: 0x8, addend: 0x0, symName: __ZNKSt6vectorIxSaIxEE4sizeEv, symObjAddr: 0x84C, symBinAddr: 0x1000079B4, symSize: 0x28 }
  - { offset: 0x45A94, size: 0x8, addend: 0x0, symName: __ZNKSt6vectorIxSaIxEE8capacityEv, symObjAddr: 0x824, symBinAddr: 0x10000798C, symSize: 0x28 }
  - { offset: 0x45AE2, size: 0x8, addend: 0x0, symName: __ZNSt6vectorIxSaIxEED1Ev, symObjAddr: 0x7C8, symBinAddr: 0x100007930, symSize: 0x5C }
  - { offset: 0x45B62, size: 0x8, addend: 0x0, symName: __ZNSt12_Vector_baseIxSaIxEED2Ev, symObjAddr: 0x778, symBinAddr: 0x1000078E0, symSize: 0x50 }
  - { offset: 0x45BA8, size: 0x8, addend: 0x0, symName: __ZNKSt6chrono10time_pointINS_3_V212system_clockENS_8durationIxSt5ratioILl1ELl1000000000EEEEE16time_since_epochEv, symObjAddr: 0x704, symBinAddr: 0x1000078C8, symSize: 0x18 }
  - { offset: 0x45BD5, size: 0x8, addend: 0x0, symName: __Z9randomizePvm, symObjAddr: 0x4A4, symBinAddr: 0x100007668, symSize: 0x260 }
  - { offset: 0x45CF0, size: 0x8, addend: 0x0, symName: __ZZ9randomizePvmENKUlmE_clEm, symObjAddr: 0x200, symBinAddr: 0x100007454, symSize: 0x214 }
  - { offset: 0x45F55, size: 0x8, addend: 0x0, symName: __ZN9__gnu_cxx17__normal_iteratorIPxSt6vectorIxSaIxEEEC1ERKS1_, symObjAddr: 0x1D8, symBinAddr: 0x10000742C, symSize: 0x28 }
  - { offset: 0x45F84, size: 0x8, addend: 0x0, symName: __ZNSt6vectorIxSaIxEE3endEv, symObjAddr: 0x1B0, symBinAddr: 0x100007404, symSize: 0x28 }
  - { offset: 0x45FAE, size: 0x8, addend: 0x0, symName: __ZNSt6vectorIxSaIxEE4backEv, symObjAddr: 0x178, symBinAddr: 0x1000073CC, symSize: 0x38 }
  - { offset: 0x45FFF, size: 0x8, addend: 0x0, symName: __ZNSt12_Vector_baseIxSaIxEE12_Vector_implD1Ev, symObjAddr: 0x158, symBinAddr: 0x1000073AC, symSize: 0x20 }
  - { offset: 0x4606F, size: 0x8, addend: 0x0, symName: __ZNSt6threadC1EOS_, symObjAddr: 0xA4, symBinAddr: 0x10000737C, symSize: 0x30 }
  - { offset: 0x4609E, size: 0x8, addend: 0x0, symName: __ZNKSt6chrono8durationIxSt5ratioILl1ELl1000000000EEE5countEv, symObjAddr: 0x38, symBinAddr: 0x100007364, symSize: 0x18 }
  - { offset: 0x460CB, size: 0x8, addend: 0x0, symName: __ZdlPvS_, symObjAddr: 0x20, symBinAddr: 0x10000734C, symSize: 0x18 }
  - { offset: 0x46C07, size: 0x8, addend: 0x0, symName: __ZL15test_data_count, symObjAddr: 0x0, symBinAddr: 0x10000CAC0, symSize: 0x0 }
  - { offset: 0x46C2F, size: 0x8, addend: 0x0, symName: __ZL10dividend_1, symObjAddr: 0x8, symBinAddr: 0x10000CAC8, symSize: 0x0 }
  - { offset: 0x46C57, size: 0x8, addend: 0x0, symName: __ZL10dividend_4, symObjAddr: 0x10, symBinAddr: 0x10000CAD0, symSize: 0x0 }
  - { offset: 0x46C7F, size: 0x8, addend: 0x0, symName: __ZL10dividend_8, symObjAddr: 0x30, symBinAddr: 0x10000CAF0, symSize: 0x0 }
  - { offset: 0x46CA7, size: 0x8, addend: 0x0, symName: __ZL11dividend_16, symObjAddr: 0x70, symBinAddr: 0x10000CB30, symSize: 0x0 }
  - { offset: 0x46CCF, size: 0x8, addend: 0x0, symName: __ZL11dividend_32, symObjAddr: 0xF0, symBinAddr: 0x10000CBB0, symSize: 0x0 }
  - { offset: 0x46CF7, size: 0x8, addend: 0x0, symName: __ZL11dividend_64, symObjAddr: 0x1F0, symBinAddr: 0x10000CCB0, symSize: 0x0 }
  - { offset: 0x46D1F, size: 0x8, addend: 0x0, symName: __ZL12dividend_128, symObjAddr: 0x3F0, symBinAddr: 0x10000CEB0, symSize: 0x0 }
  - { offset: 0x46D47, size: 0x8, addend: 0x0, symName: __ZL12dividend_256, symObjAddr: 0x7F0, symBinAddr: 0x10000D2B0, symSize: 0x0 }
  - { offset: 0x46D71, size: 0x8, addend: 0x0, symName: __ZL12dividend_512, symObjAddr: 0xFF0, symBinAddr: 0x10000DAB0, symSize: 0x0 }
  - { offset: 0x46D9B, size: 0x8, addend: 0x0, symName: __ZL13dividend_1024, symObjAddr: 0x1FF0, symBinAddr: 0x10000EAB0, symSize: 0x0 }
  - { offset: 0x46DC3, size: 0x8, addend: 0x0, symName: _test_data, symObjAddr: 0x3FF0, symBinAddr: 0x100018EE0, symSize: 0x0 }
  - { offset: 0x4CE5B, size: 0x8, addend: 0x0, symName: __ZL10thread_num, symObjAddr: 0x53F88, symBinAddr: 0x10001CC0C, symSize: 0x0 }
  - { offset: 0x4CFD5, size: 0x8, addend: 0x0, symName: _get_num_threads, symObjAddr: 0x70, symBinAddr: 0x100009DA8, symSize: 0x10 }
  - { offset: 0x4CFF0, size: 0x8, addend: 0x0, symName: _set_num_threads, symObjAddr: 0x0, symBinAddr: 0x100009D38, symSize: 0x70 }
  - { offset: 0x4D02E, size: 0x8, addend: 0x0, symName: __Z7add_modmmm, symObjAddr: 0x0, symBinAddr: 0x100009DF4, symSize: 0x6C }
  - { offset: 0x4DACD, size: 0x8, addend: 0x0, symName: __Z7mul_modmmm, symObjAddr: 0x6C, symBinAddr: 0x100009E60, symSize: 0x6C }
  - { offset: 0x4DB21, size: 0x8, addend: 0x0, symName: __Z7add_modmmm, symObjAddr: 0x0, symBinAddr: 0x100009DF4, symSize: 0x6C }
  - { offset: 0x5D860, size: 0x8, addend: 0x0, symName: __ZSt4moveIR11measurementEONSt16remove_referenceIT_E4typeEOS3_, symObjAddr: 0x156C, symBinAddr: 0x10000B0DC, symSize: 0x14 }
  - { offset: 0x5D892, size: 0x8, addend: 0x0, symName: __ZNSt10_Head_baseILm1ESt14default_deleteIA_mELb1EE7_M_headERS3_, symObjAddr: 0x1558, symBinAddr: 0x10000B0C8, symSize: 0x14 }
  - { offset: 0x5D8D9, size: 0x8, addend: 0x0, symName: __ZNSt10_Head_baseILm1ESt14default_deleteIA_mELb1EEC2Ev, symObjAddr: 0x1544, symBinAddr: 0x10000B0B4, symSize: 0x14 }
  - { offset: 0x5D8FB, size: 0x8, addend: 0x0, symName: __ZSt19__relocate_object_aI11measurementS0_SaIS0_EEvPT_PT0_RT1_, symObjAddr: 0x14CC, symBinAddr: 0x10000B03C, symSize: 0x78 }
  - { offset: 0x5D9CA, size: 0x8, addend: 0x0, symName: __ZNK9__gnu_cxx17__normal_iteratorIP11measurementvEdeEv, symObjAddr: 0x14B4, symBinAddr: 0x10000B024, symSize: 0x18 }
  - { offset: 0x5D9F4, size: 0x8, addend: 0x0, symName: __ZN9__gnu_cxx17__normal_iteratorIP11measurementvEppEv, symObjAddr: 0x148C, symBinAddr: 0x10000AFFC, symSize: 0x28 }
  - { offset: 0x5DA1A, size: 0x8, addend: 0x0, symName: __ZNSt10_Head_baseILm0EPmLb0EE7_M_headERKS1_, symObjAddr: 0x1478, symBinAddr: 0x10000AFE8, symSize: 0x14 }
  - { offset: 0x5DA43, size: 0x8, addend: 0x0, symName: __ZNSt11_Tuple_implILm1EJSt14default_deleteIA_mEEE7_M_headERS3_, symObjAddr: 0x1448, symBinAddr: 0x10000AFCC, symSize: 0x1C }
  - { offset: 0x5DA6D, size: 0x8, addend: 0x0, symName: __ZNSt10_Head_baseILm0EPmLb0EE7_M_headERS1_, symObjAddr: 0x1434, symBinAddr: 0x10000AFB8, symSize: 0x14 }
  - { offset: 0x5DAB4, size: 0x8, addend: 0x0, symName: __ZNSt10_Head_baseILm0EPmLb0EEC2Ev, symObjAddr: 0x1418, symBinAddr: 0x10000AF9C, symSize: 0x1C }
  - { offset: 0x5DAF4, size: 0x8, addend: 0x0, symName: __ZNSt11_Tuple_implILm1EJSt14default_deleteIA_mEEEC2Ev, symObjAddr: 0x13F8, symBinAddr: 0x10000AF7C, symSize: 0x20 }
  - { offset: 0x5DB1A, size: 0x8, addend: 0x0, symName: __ZNK9__gnu_cxx17__normal_iteratorIP11measurementvE4baseEv, symObjAddr: 0x13E4, symBinAddr: 0x10000AF68, symSize: 0x14 }
  - { offset: 0x5DB40, size: 0x8, addend: 0x0, symName: __ZSt14__relocate_a_1IP11measurementN9__gnu_cxx17__normal_iteratorIS1_vEESaIS0_EET0_T_S7_S6_RT1_, symObjAddr: 0x1360, symBinAddr: 0x10000AEE4, symSize: 0x84 }
  - { offset: 0x5DBCD, size: 0x8, addend: 0x0, symName: __ZNSt15__new_allocatorI11measurementE8allocateEmPKv, symObjAddr: 0x12E4, symBinAddr: 0x10000AE68, symSize: 0x7C }
  - { offset: 0x5DC55, size: 0x8, addend: 0x0, symName: __ZNSt11_Tuple_implILm0EJPmSt14default_deleteIA_mEEE7_M_headERKS4_, symObjAddr: 0x12C8, symBinAddr: 0x10000AE4C, symSize: 0x1C }
  - { offset: 0x5DC7F, size: 0x8, addend: 0x0, symName: __ZSt12__get_helperILm1ESt14default_deleteIA_mEJEERT0_RSt11_Tuple_implIXT_EJS3_DpT1_EE, symObjAddr: 0x1248, symBinAddr: 0x10000AE30, symSize: 0x1C }
  - { offset: 0x5DCC2, size: 0x8, addend: 0x0, symName: __ZNSt11_Tuple_implILm0EJPmSt14default_deleteIA_mEEE7_M_headERS4_, symObjAddr: 0x122C, symBinAddr: 0x10000AE14, symSize: 0x1C }
  - { offset: 0x5DD0A, size: 0x8, addend: 0x0, symName: __ZNSt11_Tuple_implILm0EJPmSt14default_deleteIA_mEEEC2Ev, symObjAddr: 0x1204, symBinAddr: 0x10000ADEC, symSize: 0x28 }
  - { offset: 0x5DD2C, size: 0x8, addend: 0x0, symName: __ZSt14__relocate_a_1I11measurementS0_ENSt9enable_ifIXsrSt24__is_bitwise_relocatableIT_vE5valueEPS3_E4typeES5_S5_S5_RSaIT0_E, symObjAddr: 0x1158, symBinAddr: 0x10000AD40, symSize: 0xAC }
  - { offset: 0x5DDFC, size: 0x8, addend: 0x0, symName: __ZN9__gnu_cxx17__normal_iteratorIP11measurementvEC1ERKS2_, symObjAddr: 0x1130, symBinAddr: 0x10000AD18, symSize: 0x28 }
  - { offset: 0x5DE27, size: 0x8, addend: 0x0, symName: __ZSt12__niter_baseIP11measurementET_S2_, symObjAddr: 0x111C, symBinAddr: 0x10000AD04, symSize: 0x14 }
  - { offset: 0x5DE7D, size: 0x8, addend: 0x0, symName: __ZSt12__get_helperILm0EPmJSt14default_deleteIA_mEEERKT0_RKSt11_Tuple_implIXT_EJS4_DpT1_EE, symObjAddr: 0x1100, symBinAddr: 0x10000ACE8, symSize: 0x1C }
  - { offset: 0x5DEFE, size: 0x8, addend: 0x0, symName: __ZSt3getILm1EJPmSt14default_deleteIA_mEEERNSt13tuple_elementIXT_ESt5tupleIJDpT0_EEE4typeERS8_, symObjAddr: 0x1080, symBinAddr: 0x10000ACCC, symSize: 0x1C }
  - { offset: 0x5DF45, size: 0x8, addend: 0x0, symName: __ZSt12__get_helperILm0EPmJSt14default_deleteIA_mEEERT0_RSt11_Tuple_implIXT_EJS4_DpT1_EE, symObjAddr: 0x1064, symBinAddr: 0x10000ACB0, symSize: 0x1C }
  - { offset: 0x5DFAD, size: 0x8, addend: 0x0, symName: __ZNSt5tupleIJPmSt14default_deleteIA_mEEEC1EvQfraa26is_default_constructible_vIT_E, symObjAddr: 0x1044, symBinAddr: 0x10000AC90, symSize: 0x20 }
  - { offset: 0x5DFD3, size: 0x8, addend: 0x0, symName: __ZNK9__gnu_cxx17__normal_iteratorIP11measurementSt6vectorIS1_SaIS1_EEEdeEv, symObjAddr: 0x102C, symBinAddr: 0x10000AC78, symSize: 0x18 }
  - { offset: 0x5DFFD, size: 0x8, addend: 0x0, symName: __ZNK9__gnu_cxx17__normal_iteratorIP11measurementSt6vectorIS1_SaIS1_EEEmiEl, symObjAddr: 0xFE8, symBinAddr: 0x10000AC34, symSize: 0x44 }
  - { offset: 0x5E034, size: 0x8, addend: 0x0, symName: __ZSt12__to_addressI11measurementEPT_S2_, symObjAddr: 0xFD4, symBinAddr: 0x10000AC20, symSize: 0x14 }
  - { offset: 0x5E06A, size: 0x8, addend: 0x0, symName: __ZNK9__gnu_cxx17__normal_iteratorIP11measurementSt6vectorIS1_SaIS1_EEE4baseEv, symObjAddr: 0xFC0, symBinAddr: 0x10000AC0C, symSize: 0x14 }
  - { offset: 0x5E090, size: 0x8, addend: 0x0, symName: __ZSt12construct_atI11measurementJS0_EEDTgsnwcvPvLi0E_T_pispcl7declvalIT0_EEEEPS2_DpOS3_, symObjAddr: 0xF78, symBinAddr: 0x10000ABC4, symSize: 0x48 }
  - { offset: 0x5E0DE, size: 0x8, addend: 0x0, symName: __ZSt12__relocate_aIP11measurementS1_SaIS0_EET0_T_S4_S3_RT1_, symObjAddr: 0xF1C, symBinAddr: 0x10000AB68, symSize: 0x5C }
  - { offset: 0x5E181, size: 0x8, addend: 0x0, symName: __ZSt3getILm0EJPmSt14default_deleteIA_mEEERKNSt13tuple_elementIXT_ESt5tupleIJDpT0_EEE4typeERKS8_, symObjAddr: 0xF00, symBinAddr: 0x10000AB4C, symSize: 0x1C }
  - { offset: 0x5E1FE, size: 0x8, addend: 0x0, symName: __ZNSt15__uniq_ptr_implImSt14default_deleteIA_mEE10_M_deleterEv, symObjAddr: 0xEA0, symBinAddr: 0x10000AB30, symSize: 0x1C }
  - { offset: 0x5E22B, size: 0x8, addend: 0x0, symName: __ZSt3getILm0EJPmSt14default_deleteIA_mEEERNSt13tuple_elementIXT_ESt5tupleIJDpT0_EEE4typeERS8_, symObjAddr: 0xE84, symBinAddr: 0x10000AB14, symSize: 0x1C }
  - { offset: 0x5E29D, size: 0x8, addend: 0x0, symName: __ZNSt15__uniq_ptr_implImSt14default_deleteIA_mEEC2EPm, symObjAddr: 0xE48, symBinAddr: 0x10000AAD8, symSize: 0x3C }
  - { offset: 0x5E2CC, size: 0x8, addend: 0x0, symName: __ZNSt6vectorI11measurementSaIS0_EE4backEv, symObjAddr: 0xE10, symBinAddr: 0x10000AAA0, symSize: 0x38 }
  - { offset: 0x5E2F6, size: 0x8, addend: 0x0, symName: __ZNSt6vectorI11measurementSaIS0_EE17_M_realloc_appendIJS0_EEEvDpOT_, symObjAddr: 0xC88, symBinAddr: 0x10000A918, symSize: 0x188 }
  - { offset: 0x5E47D, size: 0x8, addend: 0x0, symName: __ZZNSt6vectorI11measurementSaIS0_EE17_M_realloc_appendIJS0_EEEvDpOT_EN6_GuardC1EPS0_mRS1_, symObjAddr: 0xBB0, symBinAddr: 0x10000A840, symSize: 0x44 }
  - { offset: 0x5E4C2, size: 0x8, addend: 0x0, symName: __ZZNSt6vectorI11measurementSaIS0_EE17_M_realloc_appendIJS0_EEEvDpOT_EN6_GuardD1Ev, symObjAddr: 0xBF4, symBinAddr: 0x10000A884, symSize: 0x94 }
  - { offset: 0x5E5CB, size: 0x8, addend: 0x0, symName: __ZNSt6vectorI11measurementSaIS0_EE5beginEv, symObjAddr: 0xB8C, symBinAddr: 0x10000A81C, symSize: 0x24 }
  - { offset: 0x5E5F8, size: 0x8, addend: 0x0, symName: __ZN9__gnu_cxxmiIP11measurementSt6vectorIS1_SaIS1_EEEENS_17__normal_iteratorIT_T0_E15difference_typeERKS9_SC_, symObjAddr: 0xB4C, symBinAddr: 0x10000A7DC, symSize: 0x40 }
  - { offset: 0x5E671, size: 0x8, addend: 0x0, symName: __ZN9__gnu_cxx17__normal_iteratorIP11measurementSt6vectorIS1_SaIS1_EEEC1ERKS2_, symObjAddr: 0xB24, symBinAddr: 0x10000A7B4, symSize: 0x28 }
  - { offset: 0x5E6A0, size: 0x8, addend: 0x0, symName: __ZNSt6vectorI11measurementSaIS0_EE3endEv, symObjAddr: 0xAFC, symBinAddr: 0x10000A78C, symSize: 0x28 }
  - { offset: 0x5E6CA, size: 0x8, addend: 0x0, symName: __ZNKSt6vectorI11measurementSaIS0_EE12_M_check_lenEmPKc, symObjAddr: 0xA2C, symBinAddr: 0x10000A6BC, symSize: 0xD0 }
  - { offset: 0x5E723, size: 0x8, addend: 0x0, symName: __ZNSt6vectorI11measurementSaIS0_EE11_S_max_sizeERKS1_, symObjAddr: 0x9C0, symBinAddr: 0x10000A688, symSize: 0x34 }
  - { offset: 0x5E773, size: 0x8, addend: 0x0, symName: __ZNKSt12_Vector_baseI11measurementSaIS0_EE19_M_get_Tp_allocatorEv, symObjAddr: 0x9AC, symBinAddr: 0x10000A674, symSize: 0x14 }
  - { offset: 0x5E7E6, size: 0x8, addend: 0x0, symName: __ZSt7forwardI11measurementEOT_RNSt16remove_referenceIS1_E4typeE, symObjAddr: 0x998, symBinAddr: 0x10000A660, symSize: 0x14 }
  - { offset: 0x5E818, size: 0x8, addend: 0x0, symName: __ZNSt6chrono20__duration_cast_implINS_8durationIxSt5ratioILl1ELl1000EEEES2_ILl1ELl1000000EExLb1ELb0EE6__castIxS2_ILl1ELl1000000000EEEES4_RKNS1_IT_T0_EE, symObjAddr: 0x948, symBinAddr: 0x10000A610, symSize: 0x50 }
  - { offset: 0x5E85F, size: 0x8, addend: 0x0, symName: __ZNSt6vectorI11measurementSaIS0_EE11_S_relocateEPS0_S3_S3_RS1_, symObjAddr: 0x914, symBinAddr: 0x10000A5DC, symSize: 0x34 }
  - { offset: 0x5E8C0, size: 0x8, addend: 0x0, symName: __ZNSt12_Vector_baseI11measurementSaIS0_EE11_M_allocateEm, symObjAddr: 0x850, symBinAddr: 0x10000A518, symSize: 0xC4 }
  - { offset: 0x5E96E, size: 0x8, addend: 0x0, symName: __ZNKSt6vectorI11measurementSaIS0_EE8max_sizeEv, symObjAddr: 0x830, symBinAddr: 0x10000A4F8, symSize: 0x20 }
  - { offset: 0x5E998, size: 0x8, addend: 0x0, symName: __ZNKSt15__uniq_ptr_implImSt14default_deleteIA_mEE6_M_ptrEv, symObjAddr: 0x810, symBinAddr: 0x10000A4D8, symSize: 0x20 }
  - { offset: 0x5E9CD, size: 0x8, addend: 0x0, symName: __ZNKSt14default_deleteIA_mEclImEENSt9enable_ifIXsrSt14is_convertibleIPA_T_PS0_E5valueEvE4typeEPS5_, symObjAddr: 0x740, symBinAddr: 0x10000A4A8, symSize: 0x30 }
  - { offset: 0x5EA10, size: 0x8, addend: 0x0, symName: __ZNSt10unique_ptrIA_mSt14default_deleteIS0_EE11get_deleterEv, symObjAddr: 0x724, symBinAddr: 0x10000A48C, symSize: 0x1C }
  - { offset: 0x5EA3A, size: 0x8, addend: 0x0, symName: __ZNSt15__uniq_ptr_implImSt14default_deleteIA_mEE6_M_ptrEv, symObjAddr: 0x708, symBinAddr: 0x10000A470, symSize: 0x1C }
  - { offset: 0x5EA9E, size: 0x8, addend: 0x0, symName: __ZNSt10unique_ptrIA_mSt14default_deleteIS0_EEC1IPmS2_vbEET_, symObjAddr: 0x6E0, symBinAddr: 0x10000A448, symSize: 0x28 }
  - { offset: 0x5EB01, size: 0x8, addend: 0x0, symName: __ZNSt15__uniq_ptr_dataImSt14default_deleteIA_mELb1ELb1EECI1St15__uniq_ptr_implImS2_EEPm, symObjAddr: 0x6B8, symBinAddr: 0x10000A420, symSize: 0x28 }
  - { offset: 0x5EB2C, size: 0x8, addend: 0x0, symName: __ZNSt6chronomiIxSt5ratioILl1ELl1000000000EExS2_EENSt11common_typeIJNS_8durationIT_T0_EENS4_IT1_T2_EEEE4typeERKS7_RKSA_, symObjAddr: 0x654, symBinAddr: 0x10000A3BC, symSize: 0x64 }
  - { offset: 0x5EB9C, size: 0x8, addend: 0x0, symName: __ZNSt6vectorI11measurementSaIS0_EE12emplace_backIJS0_EEERS0_DpOT_, symObjAddr: 0x578, symBinAddr: 0x10000A318, symSize: 0xA4 }
  - { offset: 0x5EC13, size: 0x8, addend: 0x0, symName: __ZNSt6chrono13duration_castINS_8durationIxSt5ratioILl1ELl1000EEEExS2_ILl1ELl1000000000EEEENSt9enable_ifIXsrNS_13__is_durationIT_EE5valueES8_E4typeERKNS1_IT0_T1_EE, symObjAddr: 0x55C, symBinAddr: 0x10000A2FC, symSize: 0x1C }
  - { offset: 0x5EC6E, size: 0x8, addend: 0x0, symName: __ZNSt6vectorI11measurementSaIS0_EE7reserveEm, symObjAddr: 0x420, symBinAddr: 0x10000A1C0, symSize: 0x13C }
  - { offset: 0x5ECDB, size: 0x8, addend: 0x0, symName: __ZNKSt6vectorI11measurementSaIS0_EE8capacityEv, symObjAddr: 0x3D0, symBinAddr: 0x10000A198, symSize: 0x28 }
  - { offset: 0x5ED05, size: 0x8, addend: 0x0, symName: __ZNKSt10unique_ptrIA_mSt14default_deleteIS0_EE3getEv, symObjAddr: 0x3B4, symBinAddr: 0x10000A17C, symSize: 0x1C }
  - { offset: 0x5ED64, size: 0x8, addend: 0x0, symName: __ZNSt10unique_ptrIA_mSt14default_deleteIS0_EED1Ev, symObjAddr: 0x2AC, symBinAddr: 0x10000A120, symSize: 0x5C }
  - { offset: 0x5EDBB, size: 0x8, addend: 0x0, symName: __ZSt11make_uniqueIA_mENSt8__detail9_MakeUniqIT_E7__arrayEm, symObjAddr: 0x23C, symBinAddr: 0x10000A0B0, symSize: 0x70 }
  - { offset: 0x5EE23, size: 0x8, addend: 0x0, symName: __ZNSt6chrono8durationIxSt5ratioILl1ELl1000EEEC1IxvEERKT_, symObjAddr: 0x214, symBinAddr: 0x10000A088, symSize: 0x28 }
  - { offset: 0x5EE5E, size: 0x8, addend: 0x0, symName: __ZNSt6chronomiINS_3_V212steady_clockENS_8durationIxSt5ratioILl1ELl1000000000EEEES6_EENSt11common_typeIJT0_T1_EE4typeERKNS_10time_pointIT_S8_EERKNSC_ISD_S9_EE, symObjAddr: 0x1D8, symBinAddr: 0x10000A04C, symSize: 0x3C }
  - { offset: 0x5EEB8, size: 0x8, addend: 0x0, symName: __ZNKSt6chrono10time_pointINS_3_V212steady_clockENS_8durationIxSt5ratioILl1ELl1000000000EEEEE16time_since_epochEv, symObjAddr: 0x1C0, symBinAddr: 0x10000A034, symSize: 0x18 }
  - { offset: 0x5EEE9, size: 0x8, addend: 0x0, symName: __Z15run_experimentsv, symObjAddr: 0x80, symBinAddr: 0x100009EF4, symSize: 0x140 }
  - { offset: 0x5EFE8, size: 0x8, addend: 0x0, symName: __ZNSt6chrono8durationIxSt5ratioILl1ELl1000000000EEEC1IxvEERKT_, symObjAddr: 0x20, symBinAddr: 0x100009ECC, symSize: 0x28 }
  - { offset: 0x5F038, size: 0x8, addend: 0x0, symName: ___umodti3, symObjAddr: 0x0, symBinAddr: 0x10000B100, symSize: 0x33C }
  - { offset: 0x5F188, size: 0x8, addend: 0x0, symName: ___umodti3, symObjAddr: 0x0, symBinAddr: 0x10000B100, symSize: 0x33C }
  - { offset: 0x5F1D2, size: 0x8, addend: 0x0, symName: ___umodti3, symObjAddr: 0x0, symBinAddr: 0x10000B100, symSize: 0x33C }
...
